
riscv-spike.elf:     file format elf64-littleriscv


Disassembly of section .text:

0000000080000000 <_mstart>:
    80000000:	00002fb7          	lui	t6,0x2
    80000004:	800f8f9b          	addiw	t6,t6,-2048
    80000008:	300f9073          	csrw	mstatus,t6
    8000000c:	00000297          	auipc	t0,0x0
    80000010:	06428293          	addi	t0,t0,100 # 80000070 <trap_vector>
    80000014:	30529073          	csrw	mtvec,t0
    80000018:	4081                	li	ra,0
    8000001a:	4101                	li	sp,0
    8000001c:	4181                	li	gp,0
    8000001e:	4201                	li	tp,0
    80000020:	4281                	li	t0,0
    80000022:	4301                	li	t1,0
    80000024:	4381                	li	t2,0
    80000026:	4401                	li	s0,0
    80000028:	4481                	li	s1,0
    8000002a:	4501                	li	a0,0
    8000002c:	4581                	li	a1,0
    8000002e:	4601                	li	a2,0
    80000030:	4681                	li	a3,0
    80000032:	4701                	li	a4,0
    80000034:	4781                	li	a5,0
    80000036:	4801                	li	a6,0
    80000038:	4881                	li	a7,0
    8000003a:	4901                	li	s2,0
    8000003c:	4981                	li	s3,0
    8000003e:	4a01                	li	s4,0
    80000040:	4a81                	li	s5,0
    80000042:	4b01                	li	s6,0
    80000044:	4b81                	li	s7,0
    80000046:	4c01                	li	s8,0
    80000048:	4c81                	li	s9,0
    8000004a:	4d01                	li	s10,0
    8000004c:	4d81                	li	s11,0
    8000004e:	4e01                	li	t3,0
    80000050:	4e81                	li	t4,0
    80000052:	4f01                	li	t5,0
    80000054:	4f81                	li	t6,0
    80000056:	00081197          	auipc	gp,0x81
    8000005a:	b1a18193          	addi	gp,gp,-1254 # 80080b70 <_gp>
    8000005e:	00096117          	auipc	sp,0x96
    80000062:	7b210113          	addi	sp,sp,1970 # 80096810 <__stack>
    80000066:	1780006f          	j	800001de <init>
    8000006a:	00000013          	nop
    8000006e:	0001                	nop

0000000080000070 <trap_vector>:
    80000070:	7111                	addi	sp,sp,-256
    80000072:	e006                	sd	ra,0(sp)
    80000074:	f016                	sd	t0,32(sp)
    80000076:	f41a                	sd	t1,40(sp)
    80000078:	f81e                	sd	t2,48(sp)
    8000007a:	fc22                	sd	s0,56(sp)
    8000007c:	e0a6                	sd	s1,64(sp)
    8000007e:	e4aa                	sd	a0,72(sp)
    80000080:	e8ae                	sd	a1,80(sp)
    80000082:	ecb2                	sd	a2,88(sp)
    80000084:	f0b6                	sd	a3,96(sp)
    80000086:	f4ba                	sd	a4,104(sp)
    80000088:	f8be                	sd	a5,112(sp)
    8000008a:	fcc2                	sd	a6,120(sp)
    8000008c:	e146                	sd	a7,128(sp)
    8000008e:	e54a                	sd	s2,136(sp)
    80000090:	e94e                	sd	s3,144(sp)
    80000092:	ed52                	sd	s4,152(sp)
    80000094:	f156                	sd	s5,160(sp)
    80000096:	f55a                	sd	s6,168(sp)
    80000098:	f95e                	sd	s7,176(sp)
    8000009a:	fd62                	sd	s8,184(sp)
    8000009c:	e1e6                	sd	s9,192(sp)
    8000009e:	e5ea                	sd	s10,200(sp)
    800000a0:	e9ee                	sd	s11,208(sp)
    800000a2:	edf2                	sd	t3,216(sp)
    800000a4:	f1f6                	sd	t4,224(sp)
    800000a6:	f5fa                	sd	t5,232(sp)
    800000a8:	f9fe                	sd	t6,240(sp)
    800000aa:	300022f3          	csrr	t0,mstatus
    800000ae:	e416                	sd	t0,8(sp)
    800000b0:	34202573          	csrr	a0,mcause
    800000b4:	341025f3          	csrr	a1,mepc
    800000b8:	860a                	mv	a2,sp
    800000ba:	694050ef          	jal	ra,8000574e <trap_handler>
    800000be:	34151073          	csrw	mepc,a0
    800000c2:	62a2                	ld	t0,8(sp)
    800000c4:	30029073          	csrw	mstatus,t0
    800000c8:	6082                	ld	ra,0(sp)
    800000ca:	7282                	ld	t0,32(sp)
    800000cc:	7322                	ld	t1,40(sp)
    800000ce:	73c2                	ld	t2,48(sp)
    800000d0:	7462                	ld	s0,56(sp)
    800000d2:	6486                	ld	s1,64(sp)
    800000d4:	6526                	ld	a0,72(sp)
    800000d6:	65c6                	ld	a1,80(sp)
    800000d8:	6666                	ld	a2,88(sp)
    800000da:	7686                	ld	a3,96(sp)
    800000dc:	7726                	ld	a4,104(sp)
    800000de:	77c6                	ld	a5,112(sp)
    800000e0:	7866                	ld	a6,120(sp)
    800000e2:	688a                	ld	a7,128(sp)
    800000e4:	692a                	ld	s2,136(sp)
    800000e6:	69ca                	ld	s3,144(sp)
    800000e8:	6a6a                	ld	s4,152(sp)
    800000ea:	7a8a                	ld	s5,160(sp)
    800000ec:	7b2a                	ld	s6,168(sp)
    800000ee:	7bca                	ld	s7,176(sp)
    800000f0:	7c6a                	ld	s8,184(sp)
    800000f2:	6c8e                	ld	s9,192(sp)
    800000f4:	6d2e                	ld	s10,200(sp)
    800000f6:	6dce                	ld	s11,208(sp)
    800000f8:	6e6e                	ld	t3,216(sp)
    800000fa:	7e8e                	ld	t4,224(sp)
    800000fc:	7f2e                	ld	t5,232(sp)
    800000fe:	7fce                	ld	t6,240(sp)
    80000100:	6111                	addi	sp,sp,256
    80000102:	30200073          	mret

0000000080000106 <task_switch>:
    80000106:	812a                	mv	sp,a0
    80000108:	00081297          	auipc	t0,0x81
    8000010c:	27828293          	addi	t0,t0,632 # 80081380 <OSTCBCur>
    80000110:	0002b303          	ld	t1,0(t0)
    80000114:	00233023          	sd	sp,0(t1)
    80000118:	78d040ef          	jal	ra,800050a4 <OSTaskSwHook>
    8000011c:	00081297          	auipc	t0,0x81
    80000120:	e3428293          	addi	t0,t0,-460 # 80080f50 <OSTCBHighRdy>
    80000124:	0002b303          	ld	t1,0(t0)
    80000128:	00081297          	auipc	t0,0x81
    8000012c:	25828293          	addi	t0,t0,600 # 80081380 <OSTCBCur>
    80000130:	0062b023          	sd	t1,0(t0)
    80000134:	00080297          	auipc	t0,0x80
    80000138:	32e28293          	addi	t0,t0,814 # 80080462 <OSPrioHighRdy>
    8000013c:	0002c303          	lbu	t1,0(t0)
    80000140:	00081297          	auipc	t0,0x81
    80000144:	84828293          	addi	t0,t0,-1976 # 80080988 <OSPrioCur>
    80000148:	00628023          	sb	t1,0(t0)
    8000014c:	00081297          	auipc	t0,0x81
    80000150:	e0428293          	addi	t0,t0,-508 # 80080f50 <OSTCBHighRdy>
    80000154:	0002b303          	ld	t1,0(t0)
    80000158:	00033103          	ld	sp,0(t1)
    8000015c:	72ee                	ld	t0,248(sp)
    8000015e:	34129073          	csrw	mepc,t0
    80000162:	62a2                	ld	t0,8(sp)
    80000164:	3002a073          	csrs	mstatus,t0
    80000168:	6082                	ld	ra,0(sp)
    8000016a:	7282                	ld	t0,32(sp)
    8000016c:	7322                	ld	t1,40(sp)
    8000016e:	73c2                	ld	t2,48(sp)
    80000170:	7462                	ld	s0,56(sp)
    80000172:	6486                	ld	s1,64(sp)
    80000174:	6526                	ld	a0,72(sp)
    80000176:	65c6                	ld	a1,80(sp)
    80000178:	6666                	ld	a2,88(sp)
    8000017a:	7686                	ld	a3,96(sp)
    8000017c:	7726                	ld	a4,104(sp)
    8000017e:	77c6                	ld	a5,112(sp)
    80000180:	7866                	ld	a6,120(sp)
    80000182:	688a                	ld	a7,128(sp)
    80000184:	692a                	ld	s2,136(sp)
    80000186:	69ca                	ld	s3,144(sp)
    80000188:	6a6a                	ld	s4,152(sp)
    8000018a:	7a8a                	ld	s5,160(sp)
    8000018c:	7b2a                	ld	s6,168(sp)
    8000018e:	7bca                	ld	s7,176(sp)
    80000190:	7c6a                	ld	s8,184(sp)
    80000192:	6c8e                	ld	s9,192(sp)
    80000194:	6d2e                	ld	s10,200(sp)
    80000196:	6dce                	ld	s11,208(sp)
    80000198:	6e6e                	ld	t3,216(sp)
    8000019a:	7e8e                	ld	t4,224(sp)
    8000019c:	7f2e                	ld	t5,232(sp)
    8000019e:	7fce                	ld	t6,240(sp)
    800001a0:	6111                	addi	sp,sp,256
    800001a2:	30200073          	mret
    800001a6:	00000013          	nop
    800001aa:	00000013          	nop
    800001ae:	0001                	nop

00000000800001b0 <cpu_sr_set>:
    800001b0:	30002573          	csrr	a0,mstatus
    800001b4:	30047073          	csrci	mstatus,8
    800001b8:	8082                	ret

00000000800001ba <cpu_sr_reset>:
    800001ba:	30051073          	csrw	mstatus,a0
    800001be:	8082                	ret
    800001c0:	0000                	unimp
    800001c2:	0000                	unimp
	...

00000000800001c6 <exit>:
    800001c6:	30047073          	csrci	mstatus,8
    800001ca:	0015179b          	slliw	a5,a0,0x1
    800001ce:	0017e793          	ori	a5,a5,1
    800001d2:	2781                	sext.w	a5,a5
    800001d4:	00082717          	auipc	a4,0x82
    800001d8:	62f73623          	sd	a5,1580(a4) # 80082800 <tohost>
    800001dc:	a001                	j	800001dc <exit+0x16>

00000000800001de <init>:
    800001de:	1101                	addi	sp,sp,-32
    800001e0:	ec06                	sd	ra,24(sp)
    800001e2:	00080797          	auipc	a5,0x80
    800001e6:	18678793          	addi	a5,a5,390 # 80080368 <__rodata_end>
    800001ea:	00080717          	auipc	a4,0x80
    800001ee:	18270713          	addi	a4,a4,386 # 8008036c <buflen.1036>
    800001f2:	00f76763          	bltu	a4,a5,80000200 <init+0x22>
    800001f6:	0007a023          	sw	zero,0(a5)
    800001fa:	0791                	addi	a5,a5,4
    800001fc:	fef77de3          	bleu	a5,a4,800001f6 <init+0x18>
    80000200:	00080797          	auipc	a5,0x80
    80000204:	18078793          	addi	a5,a5,384 # 80080380 <__bss_start>
    80000208:	0008e717          	auipc	a4,0x8e
    8000020c:	60470713          	addi	a4,a4,1540 # 8008e80c <mstatus_save+0x4>
    80000210:	00f76763          	bltu	a4,a5,8000021e <init+0x40>
    80000214:	0007a023          	sw	zero,0(a5)
    80000218:	0791                	addi	a5,a5,4
    8000021a:	fef77de3          	bleu	a5,a4,80000214 <init+0x36>
    8000021e:	858a                	mv	a1,sp
    80000220:	00080797          	auipc	a5,0x80
    80000224:	03878793          	addi	a5,a5,56 # 80080258 <OSUnMapTbl+0x258>
    80000228:	4505                	li	a0,1
    8000022a:	e03e                	sd	a5,0(sp)
    8000022c:	e402                	sd	zero,8(sp)
    8000022e:	674050ef          	jal	ra,800058a2 <main>
    80000232:	f95ff0ef          	jal	ra,800001c6 <exit>
    80000236:	60e2                	ld	ra,24(sp)
    80000238:	6105                	addi	sp,sp,32
    8000023a:	8082                	ret

000000008000023c <OS_FlagBlock>:
    8000023c:	00081897          	auipc	a7,0x81
    80000240:	14488893          	addi	a7,a7,324 # 80081380 <OSTCBCur>
    80000244:	0008b783          	ld	a5,0(a7)
    80000248:	0587c803          	lbu	a6,88(a5)
    8000024c:	04078ca3          	sb	zero,89(a5)
    80000250:	cbf8                	sw	a4,84(a5)
    80000252:	02086813          	ori	a6,a6,32
    80000256:	05078c23          	sb	a6,88(a5)
    8000025a:	e7ac                	sd	a1,72(a5)
    8000025c:	02c59023          	sh	a2,32(a1)
    80000260:	02d58123          	sb	a3,34(a1)
    80000264:	e99c                	sd	a5,16(a1)
    80000266:	651c                	ld	a5,8(a0)
    80000268:	0005b423          	sd	zero,8(a1)
    8000026c:	ed88                	sd	a0,24(a1)
    8000026e:	e19c                	sd	a5,0(a1)
    80000270:	651c                	ld	a5,8(a0)
    80000272:	c391                	beqz	a5,80000276 <OS_FlagBlock+0x3a>
    80000274:	e78c                	sd	a1,8(a5)
    80000276:	0008b683          	ld	a3,0(a7)
    8000027a:	e50c                	sd	a1,8(a0)
    8000027c:	00081717          	auipc	a4,0x81
    80000280:	cec70713          	addi	a4,a4,-788 # 80080f68 <OSRdyTbl>
    80000284:	05c6c603          	lbu	a2,92(a3)
    80000288:	05d6c783          	lbu	a5,93(a3)
    8000028c:	9732                	add	a4,a4,a2
    8000028e:	00074603          	lbu	a2,0(a4)
    80000292:	fff7c793          	not	a5,a5
    80000296:	8ff1                	and	a5,a5,a2
    80000298:	00f70023          	sb	a5,0(a4)
    8000029c:	ef91                	bnez	a5,800002b8 <OS_FlagBlock+0x7c>
    8000029e:	05e6c783          	lbu	a5,94(a3)
    800002a2:	00081717          	auipc	a4,0x81
    800002a6:	cbe74703          	lbu	a4,-834(a4) # 80080f60 <OSRdyGrp>
    800002aa:	fff7c793          	not	a5,a5
    800002ae:	8ff9                	and	a5,a5,a4
    800002b0:	00081717          	auipc	a4,0x81
    800002b4:	caf70823          	sb	a5,-848(a4) # 80080f60 <OSRdyGrp>
    800002b8:	8082                	ret

00000000800002ba <OS_FlagTaskRdy>:
    800002ba:	691c                	ld	a5,16(a0)
    800002bc:	872a                	mv	a4,a0
    800002be:	4501                	li	a0,0
    800002c0:	0587c683          	lbu	a3,88(a5)
    800002c4:	0407aa23          	sw	zero,84(a5)
    800002c8:	04b79823          	sh	a1,80(a5)
    800002cc:	0df6f693          	andi	a3,a3,223
    800002d0:	04d78c23          	sb	a3,88(a5)
    800002d4:	04078ca3          	sb	zero,89(a5)
    800002d8:	ea9d                	bnez	a3,8000030e <OS_FlagTaskRdy+0x54>
    800002da:	05c7c603          	lbu	a2,92(a5)
    800002de:	00081697          	auipc	a3,0x81
    800002e2:	c8a68693          	addi	a3,a3,-886 # 80080f68 <OSRdyTbl>
    800002e6:	05e7c583          	lbu	a1,94(a5)
    800002ea:	96b2                	add	a3,a3,a2
    800002ec:	0006c603          	lbu	a2,0(a3)
    800002f0:	05d7c783          	lbu	a5,93(a5)
    800002f4:	00081517          	auipc	a0,0x81
    800002f8:	c6c54503          	lbu	a0,-916(a0) # 80080f60 <OSRdyGrp>
    800002fc:	8dc9                	or	a1,a1,a0
    800002fe:	8fd1                	or	a5,a5,a2
    80000300:	00f68023          	sb	a5,0(a3)
    80000304:	00081617          	auipc	a2,0x81
    80000308:	c4b60e23          	sb	a1,-932(a2) # 80080f60 <OSRdyGrp>
    8000030c:	4505                	li	a0,1
    8000030e:	6714                	ld	a3,8(a4)
    80000310:	631c                	ld	a5,0(a4)
    80000312:	ca81                	beqz	a3,80000322 <OS_FlagTaskRdy+0x68>
    80000314:	e29c                	sd	a5,0(a3)
    80000316:	c391                	beqz	a5,8000031a <OS_FlagTaskRdy+0x60>
    80000318:	e794                	sd	a3,8(a5)
    8000031a:	6b1c                	ld	a5,16(a4)
    8000031c:	0407b423          	sd	zero,72(a5)
    80000320:	8082                	ret
    80000322:	6f14                	ld	a3,24(a4)
    80000324:	e69c                	sd	a5,8(a3)
    80000326:	dbf5                	beqz	a5,8000031a <OS_FlagTaskRdy+0x60>
    80000328:	0007b423          	sd	zero,8(a5)
    8000032c:	6b1c                	ld	a5,16(a4)
    8000032e:	0407b423          	sd	zero,72(a5)
    80000332:	8082                	ret

0000000080000334 <OSMutex_RdyAtPrio>:
    80000334:	05c54703          	lbu	a4,92(a0)
    80000338:	00081697          	auipc	a3,0x81
    8000033c:	c3068693          	addi	a3,a3,-976 # 80080f68 <OSRdyTbl>
    80000340:	05d54783          	lbu	a5,93(a0)
    80000344:	9736                	add	a4,a4,a3
    80000346:	00074603          	lbu	a2,0(a4)
    8000034a:	fff7c793          	not	a5,a5
    8000034e:	00081817          	auipc	a6,0x81
    80000352:	c1284803          	lbu	a6,-1006(a6) # 80080f60 <OSRdyGrp>
    80000356:	8ff1                	and	a5,a5,a2
    80000358:	00f70023          	sb	a5,0(a4)
    8000035c:	e799                	bnez	a5,8000036a <OSMutex_RdyAtPrio+0x36>
    8000035e:	05e54783          	lbu	a5,94(a0)
    80000362:	fff7c793          	not	a5,a5
    80000366:	00f87833          	and	a6,a6,a5
    8000036a:	0035d61b          	srliw	a2,a1,0x3
    8000036e:	8a1d                	andi	a2,a2,7
    80000370:	0006071b          	sext.w	a4,a2
    80000374:	96ba                	add	a3,a3,a4
    80000376:	0075f893          	andi	a7,a1,7
    8000037a:	4785                	li	a5,1
    8000037c:	0006ce03          	lbu	t3,0(a3)
    80000380:	00e79733          	sll	a4,a5,a4
    80000384:	011797b3          	sll	a5,a5,a7
    80000388:	0ff77713          	andi	a4,a4,255
    8000038c:	0ff7f793          	andi	a5,a5,255
    80000390:	00359313          	slli	t1,a1,0x3
    80000394:	04c50e23          	sb	a2,92(a0)
    80000398:	00082617          	auipc	a2,0x82
    8000039c:	20060613          	addi	a2,a2,512 # 80082598 <OSTCBPrioTbl>
    800003a0:	04b50d23          	sb	a1,90(a0)
    800003a4:	04e50f23          	sb	a4,94(a0)
    800003a8:	04f50ea3          	sb	a5,93(a0)
    800003ac:	01076733          	or	a4,a4,a6
    800003b0:	05150da3          	sb	a7,91(a0)
    800003b4:	01c7e7b3          	or	a5,a5,t3
    800003b8:	961a                	add	a2,a2,t1
    800003ba:	00080817          	auipc	a6,0x80
    800003be:	5cb80723          	sb	a1,1486(a6) # 80080988 <OSPrioCur>
    800003c2:	00f68023          	sb	a5,0(a3)
    800003c6:	00081597          	auipc	a1,0x81
    800003ca:	b8e58d23          	sb	a4,-1126(a1) # 80080f60 <OSRdyGrp>
    800003ce:	e208                	sd	a0,0(a2)
    800003d0:	8082                	ret

00000000800003d2 <OSTmr_Unlink>:
    800003d2:	02855783          	lhu	a5,40(a0)
    800003d6:	00080717          	auipc	a4,0x80
    800003da:	ff270713          	addi	a4,a4,-14 # 800803c8 <OSTmrWheelTbl>
    800003de:	8b9d                	andi	a5,a5,7
    800003e0:	0792                	slli	a5,a5,0x4
    800003e2:	00f706b3          	add	a3,a4,a5
    800003e6:	6290                	ld	a2,0(a3)
    800003e8:	02a60563          	beq	a2,a0,80000412 <OSTmr_Unlink+0x40>
    800003ec:	7110                	ld	a2,32(a0)
    800003ee:	6d14                	ld	a3,24(a0)
    800003f0:	ee14                	sd	a3,24(a2)
    800003f2:	c291                	beqz	a3,800003f6 <OSTmr_Unlink+0x24>
    800003f4:	f290                	sd	a2,32(a3)
    800003f6:	4685                	li	a3,1
    800003f8:	04d500a3          	sb	a3,65(a0)
    800003fc:	00053c23          	sd	zero,24(a0)
    80000400:	02053023          	sd	zero,32(a0)
    80000404:	97ba                	add	a5,a5,a4
    80000406:	0087d703          	lhu	a4,8(a5)
    8000040a:	377d                	addiw	a4,a4,-1
    8000040c:	00e79423          	sh	a4,8(a5)
    80000410:	8082                	ret
    80000412:	6d10                	ld	a2,24(a0)
    80000414:	e290                	sd	a2,0(a3)
    80000416:	d265                	beqz	a2,800003f6 <OSTmr_Unlink+0x24>
    80000418:	02063023          	sd	zero,32(a2)
    8000041c:	bfe9                	j	800003f6 <OSTmr_Unlink+0x24>

000000008000041e <OS_TaskIdle>:
    8000041e:	1141                	addi	sp,sp,-16
    80000420:	e022                	sd	s0,0(sp)
    80000422:	e406                	sd	ra,8(sp)
    80000424:	00080417          	auipc	s0,0x80
    80000428:	03840413          	addi	s0,s0,56 # 8008045c <OSIdleCtr>
    8000042c:	2d5040ef          	jal	ra,80004f00 <OS_CPU_SR_Save>
    80000430:	401c                	lw	a5,0(s0)
    80000432:	2785                	addiw	a5,a5,1
    80000434:	00080717          	auipc	a4,0x80
    80000438:	02f72423          	sw	a5,40(a4) # 8008045c <OSIdleCtr>
    8000043c:	2cf040ef          	jal	ra,80004f0a <OS_CPU_SR_Restore>
    80000440:	461040ef          	jal	ra,800050a0 <OSTaskIdleHook>
    80000444:	b7e5                	j	8000042c <OS_TaskIdle+0xe>

0000000080000446 <OSSchedLock.part.1>:
    80000446:	1141                	addi	sp,sp,-16
    80000448:	e406                	sd	ra,8(sp)
    8000044a:	2b7040ef          	jal	ra,80004f00 <OS_CPU_SR_Save>
    8000044e:	00081797          	auipc	a5,0x81
    80000452:	f2a7c783          	lbu	a5,-214(a5) # 80081378 <OSIntNesting>
    80000456:	ef91                	bnez	a5,80000472 <OSSchedLock.part.1+0x2c>
    80000458:	00080797          	auipc	a5,0x80
    8000045c:	ff07c783          	lbu	a5,-16(a5) # 80080448 <OSLockNesting>
    80000460:	0ff00713          	li	a4,255
    80000464:	00e78763          	beq	a5,a4,80000472 <OSSchedLock.part.1+0x2c>
    80000468:	2785                	addiw	a5,a5,1
    8000046a:	00080717          	auipc	a4,0x80
    8000046e:	fcf70f23          	sb	a5,-34(a4) # 80080448 <OSLockNesting>
    80000472:	60a2                	ld	ra,8(sp)
    80000474:	0141                	addi	sp,sp,16
    80000476:	2950406f          	j	80004f0a <OS_CPU_SR_Restore>

000000008000047a <OSTaskNameSet.part.7>:
    8000047a:	1101                	addi	sp,sp,-32
    8000047c:	e822                	sd	s0,16(sp)
    8000047e:	e426                	sd	s1,8(sp)
    80000480:	e04a                	sd	s2,0(sp)
    80000482:	ec06                	sd	ra,24(sp)
    80000484:	842a                	mv	s0,a0
    80000486:	892e                	mv	s2,a1
    80000488:	84b2                	mv	s1,a2
    8000048a:	277040ef          	jal	ra,80004f00 <OS_CPU_SR_Save>
    8000048e:	0ff00793          	li	a5,255
    80000492:	00f41963          	bne	s0,a5,800004a4 <OSTaskNameSet.part.7+0x2a>
    80000496:	00081797          	auipc	a5,0x81
    8000049a:	eea78793          	addi	a5,a5,-278 # 80081380 <OSTCBCur>
    8000049e:	639c                	ld	a5,0(a5)
    800004a0:	05a7c403          	lbu	s0,90(a5)
    800004a4:	00082797          	auipc	a5,0x82
    800004a8:	0f478793          	addi	a5,a5,244 # 80082598 <OSTCBPrioTbl>
    800004ac:	040e                	slli	s0,s0,0x3
    800004ae:	943e                	add	s0,s0,a5
    800004b0:	601c                	ld	a5,0(s0)
    800004b2:	c385                	beqz	a5,800004d2 <OSTaskNameSet.part.7+0x58>
    800004b4:	4705                	li	a4,1
    800004b6:	00e78e63          	beq	a5,a4,800004d2 <OSTaskNameSet.part.7+0x58>
    800004ba:	0927b023          	sd	s2,128(a5)
    800004be:	24d040ef          	jal	ra,80004f0a <OS_CPU_SR_Restore>
    800004c2:	00048023          	sb	zero,0(s1)
    800004c6:	60e2                	ld	ra,24(sp)
    800004c8:	6442                	ld	s0,16(sp)
    800004ca:	64a2                	ld	s1,8(sp)
    800004cc:	6902                	ld	s2,0(sp)
    800004ce:	6105                	addi	sp,sp,32
    800004d0:	8082                	ret
    800004d2:	239040ef          	jal	ra,80004f0a <OS_CPU_SR_Restore>
    800004d6:	04300793          	li	a5,67
    800004da:	00f48023          	sb	a5,0(s1)
    800004de:	60e2                	ld	ra,24(sp)
    800004e0:	6442                	ld	s0,16(sp)
    800004e2:	64a2                	ld	s1,8(sp)
    800004e4:	6902                	ld	s2,0(sp)
    800004e6:	6105                	addi	sp,sp,32
    800004e8:	8082                	ret

00000000800004ea <OSTmr_Link.constprop.10>:
    800004ea:	555c                	lw	a5,44(a0)
    800004ec:	470d                	li	a4,3
    800004ee:	04e500a3          	sb	a4,65(a0)
    800004f2:	00081717          	auipc	a4,0x81
    800004f6:	e9670713          	addi	a4,a4,-362 # 80081388 <OSTmrTime>
    800004fa:	4318                	lw	a4,0(a4)
    800004fc:	eb8d                	bnez	a5,8000052e <OSTmr_Link.constprop.10+0x44>
    800004fe:	591c                	lw	a5,48(a0)
    80000500:	9fb9                	addw	a5,a5,a4
    80000502:	d51c                	sw	a5,40(a0)
    80000504:	8b9d                	andi	a5,a5,7
    80000506:	00479713          	slli	a4,a5,0x4
    8000050a:	00080797          	auipc	a5,0x80
    8000050e:	ebe78793          	addi	a5,a5,-322 # 800803c8 <OSTmrWheelTbl>
    80000512:	97ba                	add	a5,a5,a4
    80000514:	6398                	ld	a4,0(a5)
    80000516:	e388                	sd	a0,0(a5)
    80000518:	cb05                	beqz	a4,80000548 <OSTmr_Link.constprop.10+0x5e>
    8000051a:	ed18                	sd	a4,24(a0)
    8000051c:	f308                	sd	a0,32(a4)
    8000051e:	0087d703          	lhu	a4,8(a5)
    80000522:	2705                	addiw	a4,a4,1
    80000524:	00e79423          	sh	a4,8(a5)
    80000528:	02053023          	sd	zero,32(a0)
    8000052c:	8082                	ret
    8000052e:	9fb9                	addw	a5,a5,a4
    80000530:	d51c                	sw	a5,40(a0)
    80000532:	8b9d                	andi	a5,a5,7
    80000534:	00479713          	slli	a4,a5,0x4
    80000538:	00080797          	auipc	a5,0x80
    8000053c:	e9078793          	addi	a5,a5,-368 # 800803c8 <OSTmrWheelTbl>
    80000540:	97ba                	add	a5,a5,a4
    80000542:	6398                	ld	a4,0(a5)
    80000544:	e388                	sd	a0,0(a5)
    80000546:	fb71                	bnez	a4,8000051a <OSTmr_Link.constprop.10+0x30>
    80000548:	00053c23          	sd	zero,24(a0)
    8000054c:	4705                	li	a4,1
    8000054e:	00e79423          	sh	a4,8(a5)
    80000552:	02053023          	sd	zero,32(a0)
    80000556:	8082                	ret

0000000080000558 <OSEventNameGet>:
    80000558:	7179                	addi	sp,sp,-48
    8000055a:	f022                	sd	s0,32(sp)
    8000055c:	f406                	sd	ra,40(sp)
    8000055e:	ec26                	sd	s1,24(sp)
    80000560:	e84a                	sd	s2,16(sp)
    80000562:	e44e                	sd	s3,8(sp)
    80000564:	00081417          	auipc	s0,0x81
    80000568:	e1444403          	lbu	s0,-492(s0) # 80081378 <OSIntNesting>
    8000056c:	e405                	bnez	s0,80000594 <OSEventNameGet+0x3c>
    8000056e:	00054783          	lbu	a5,0(a0)
    80000572:	470d                	li	a4,3
    80000574:	37fd                	addiw	a5,a5,-1
    80000576:	0ff7f793          	andi	a5,a5,255
    8000057a:	02f77963          	bleu	a5,a4,800005ac <OSEventNameGet+0x54>
    8000057e:	8522                	mv	a0,s0
    80000580:	70a2                	ld	ra,40(sp)
    80000582:	7402                	ld	s0,32(sp)
    80000584:	4785                	li	a5,1
    80000586:	00f60023          	sb	a5,0(a2)
    8000058a:	64e2                	ld	s1,24(sp)
    8000058c:	6942                	ld	s2,16(sp)
    8000058e:	69a2                	ld	s3,8(sp)
    80000590:	6145                	addi	sp,sp,48
    80000592:	8082                	ret
    80000594:	4401                	li	s0,0
    80000596:	8522                	mv	a0,s0
    80000598:	70a2                	ld	ra,40(sp)
    8000059a:	7402                	ld	s0,32(sp)
    8000059c:	47c5                	li	a5,17
    8000059e:	00f60023          	sb	a5,0(a2)
    800005a2:	64e2                	ld	s1,24(sp)
    800005a4:	6942                	ld	s2,16(sp)
    800005a6:	69a2                	ld	s3,8(sp)
    800005a8:	6145                	addi	sp,sp,48
    800005aa:	8082                	ret
    800005ac:	89ae                	mv	s3,a1
    800005ae:	892a                	mv	s2,a0
    800005b0:	84b2                	mv	s1,a2
    800005b2:	14f040ef          	jal	ra,80004f00 <OS_CPU_SR_Save>
    800005b6:	02093783          	ld	a5,32(s2)
    800005ba:	00f9b023          	sd	a5,0(s3)
    800005be:	0007c703          	lbu	a4,0(a5)
    800005c2:	cb01                	beqz	a4,800005d2 <OSEventNameGet+0x7a>
    800005c4:	0785                	addi	a5,a5,1
    800005c6:	0007c703          	lbu	a4,0(a5)
    800005ca:	2405                	addiw	s0,s0,1
    800005cc:	0ff47413          	andi	s0,s0,255
    800005d0:	fb75                	bnez	a4,800005c4 <OSEventNameGet+0x6c>
    800005d2:	139040ef          	jal	ra,80004f0a <OS_CPU_SR_Restore>
    800005d6:	00048023          	sb	zero,0(s1)
    800005da:	8522                	mv	a0,s0
    800005dc:	70a2                	ld	ra,40(sp)
    800005de:	7402                	ld	s0,32(sp)
    800005e0:	64e2                	ld	s1,24(sp)
    800005e2:	6942                	ld	s2,16(sp)
    800005e4:	69a2                	ld	s3,8(sp)
    800005e6:	6145                	addi	sp,sp,48
    800005e8:	8082                	ret

00000000800005ea <OSEventNameSet>:
    800005ea:	00081797          	auipc	a5,0x81
    800005ee:	d8e7c783          	lbu	a5,-626(a5) # 80081378 <OSIntNesting>
    800005f2:	ef89                	bnez	a5,8000060c <OSEventNameSet+0x22>
    800005f4:	00054783          	lbu	a5,0(a0)
    800005f8:	470d                	li	a4,3
    800005fa:	37fd                	addiw	a5,a5,-1
    800005fc:	0ff7f793          	andi	a5,a5,255
    80000600:	00f77a63          	bleu	a5,a4,80000614 <OSEventNameSet+0x2a>
    80000604:	4785                	li	a5,1
    80000606:	00f60023          	sb	a5,0(a2)
    8000060a:	8082                	ret
    8000060c:	47c9                	li	a5,18
    8000060e:	00f60023          	sb	a5,0(a2)
    80000612:	8082                	ret
    80000614:	1101                	addi	sp,sp,-32
    80000616:	e426                	sd	s1,8(sp)
    80000618:	e04a                	sd	s2,0(sp)
    8000061a:	84aa                	mv	s1,a0
    8000061c:	892e                	mv	s2,a1
    8000061e:	ec06                	sd	ra,24(sp)
    80000620:	e822                	sd	s0,16(sp)
    80000622:	8432                	mv	s0,a2
    80000624:	0dd040ef          	jal	ra,80004f00 <OS_CPU_SR_Save>
    80000628:	0324b023          	sd	s2,32(s1)
    8000062c:	0df040ef          	jal	ra,80004f0a <OS_CPU_SR_Restore>
    80000630:	00040023          	sb	zero,0(s0)
    80000634:	60e2                	ld	ra,24(sp)
    80000636:	6442                	ld	s0,16(sp)
    80000638:	64a2                	ld	s1,8(sp)
    8000063a:	6902                	ld	s2,0(sp)
    8000063c:	6105                	addi	sp,sp,32
    8000063e:	8082                	ret

0000000080000640 <OSIntEnter>:
    80000640:	00080717          	auipc	a4,0x80
    80000644:	e1874703          	lbu	a4,-488(a4) # 80080458 <OSRunning>
    80000648:	4785                	li	a5,1
    8000064a:	00f70363          	beq	a4,a5,80000650 <OSIntEnter+0x10>
    8000064e:	8082                	ret
    80000650:	00081797          	auipc	a5,0x81
    80000654:	d287c783          	lbu	a5,-728(a5) # 80081378 <OSIntNesting>
    80000658:	0ff00713          	li	a4,255
    8000065c:	fee789e3          	beq	a5,a4,8000064e <OSIntEnter+0xe>
    80000660:	2785                	addiw	a5,a5,1
    80000662:	00081717          	auipc	a4,0x81
    80000666:	d0f70b23          	sb	a5,-746(a4) # 80081378 <OSIntNesting>
    8000066a:	8082                	ret

000000008000066c <OSIntExit>:
    8000066c:	00080717          	auipc	a4,0x80
    80000670:	dec74703          	lbu	a4,-532(a4) # 80080458 <OSRunning>
    80000674:	4785                	li	a5,1
    80000676:	00f70363          	beq	a4,a5,8000067c <OSIntExit+0x10>
    8000067a:	8082                	ret
    8000067c:	1141                	addi	sp,sp,-16
    8000067e:	e406                	sd	ra,8(sp)
    80000680:	081040ef          	jal	ra,80004f00 <OS_CPU_SR_Save>
    80000684:	00081797          	auipc	a5,0x81
    80000688:	cf47c783          	lbu	a5,-780(a5) # 80081378 <OSIntNesting>
    8000068c:	cf89                	beqz	a5,800006a6 <OSIntExit+0x3a>
    8000068e:	37fd                	addiw	a5,a5,-1
    80000690:	0ff7f793          	andi	a5,a5,255
    80000694:	00081717          	auipc	a4,0x81
    80000698:	cef70223          	sb	a5,-796(a4) # 80081378 <OSIntNesting>
    8000069c:	c789                	beqz	a5,800006a6 <OSIntExit+0x3a>
    8000069e:	60a2                	ld	ra,8(sp)
    800006a0:	0141                	addi	sp,sp,16
    800006a2:	0690406f          	j	80004f0a <OS_CPU_SR_Restore>
    800006a6:	00080797          	auipc	a5,0x80
    800006aa:	da27c783          	lbu	a5,-606(a5) # 80080448 <OSLockNesting>
    800006ae:	fbe5                	bnez	a5,8000069e <OSIntExit+0x32>
    800006b0:	00080717          	auipc	a4,0x80
    800006b4:	95070713          	addi	a4,a4,-1712 # 80080000 <OSUnMapTbl>
    800006b8:	00081797          	auipc	a5,0x81
    800006bc:	8a87c783          	lbu	a5,-1880(a5) # 80080f60 <OSRdyGrp>
    800006c0:	97ba                	add	a5,a5,a4
    800006c2:	0007c783          	lbu	a5,0(a5)
    800006c6:	00081697          	auipc	a3,0x81
    800006ca:	8a268693          	addi	a3,a3,-1886 # 80080f68 <OSRdyTbl>
    800006ce:	96be                	add	a3,a3,a5
    800006d0:	0006c603          	lbu	a2,0(a3)
    800006d4:	0037979b          	slliw	a5,a5,0x3
    800006d8:	00080697          	auipc	a3,0x80
    800006dc:	2b06c683          	lbu	a3,688(a3) # 80080988 <OSPrioCur>
    800006e0:	9732                	add	a4,a4,a2
    800006e2:	00074703          	lbu	a4,0(a4)
    800006e6:	9fb9                	addw	a5,a5,a4
    800006e8:	0ff7f793          	andi	a5,a5,255
    800006ec:	00379613          	slli	a2,a5,0x3
    800006f0:	00082717          	auipc	a4,0x82
    800006f4:	ea870713          	addi	a4,a4,-344 # 80082598 <OSTCBPrioTbl>
    800006f8:	9732                	add	a4,a4,a2
    800006fa:	6318                	ld	a4,0(a4)
    800006fc:	00080617          	auipc	a2,0x80
    80000700:	d6f60323          	sb	a5,-666(a2) # 80080462 <OSPrioHighRdy>
    80000704:	00081617          	auipc	a2,0x81
    80000708:	84e63623          	sd	a4,-1972(a2) # 80080f50 <OSTCBHighRdy>
    8000070c:	f8f689e3          	beq	a3,a5,8000069e <OSIntExit+0x32>
    80000710:	00080797          	auipc	a5,0x80
    80000714:	75878793          	addi	a5,a5,1880 # 80080e68 <OSCtxSwCtr>
    80000718:	5334                	lw	a3,96(a4)
    8000071a:	439c                	lw	a5,0(a5)
    8000071c:	2685                	addiw	a3,a3,1
    8000071e:	2785                	addiw	a5,a5,1
    80000720:	d334                	sw	a3,96(a4)
    80000722:	00080717          	auipc	a4,0x80
    80000726:	74f72323          	sw	a5,1862(a4) # 80080e68 <OSCtxSwCtr>
    8000072a:	bf95                	j	8000069e <OSIntExit+0x32>

000000008000072c <OSSchedLock>:
    8000072c:	00080717          	auipc	a4,0x80
    80000730:	d2c74703          	lbu	a4,-724(a4) # 80080458 <OSRunning>
    80000734:	4785                	li	a5,1
    80000736:	00f70363          	beq	a4,a5,8000073c <OSSchedLock+0x10>
    8000073a:	8082                	ret
    8000073c:	d0bff06f          	j	80000446 <OSSchedLock.part.1>

0000000080000740 <OSStart>:
    80000740:	00080797          	auipc	a5,0x80
    80000744:	d187c783          	lbu	a5,-744(a5) # 80080458 <OSRunning>
    80000748:	c391                	beqz	a5,8000074c <OSStart+0xc>
    8000074a:	8082                	ret
    8000074c:	00080717          	auipc	a4,0x80
    80000750:	8b470713          	addi	a4,a4,-1868 # 80080000 <OSUnMapTbl>
    80000754:	00081797          	auipc	a5,0x81
    80000758:	80c7c783          	lbu	a5,-2036(a5) # 80080f60 <OSRdyGrp>
    8000075c:	97ba                	add	a5,a5,a4
    8000075e:	0007c783          	lbu	a5,0(a5)
    80000762:	00081697          	auipc	a3,0x81
    80000766:	80668693          	addi	a3,a3,-2042 # 80080f68 <OSRdyTbl>
    8000076a:	96be                	add	a3,a3,a5
    8000076c:	0006c683          	lbu	a3,0(a3)
    80000770:	0037979b          	slliw	a5,a5,0x3
    80000774:	9736                	add	a4,a4,a3
    80000776:	00074703          	lbu	a4,0(a4)
    8000077a:	9fb9                	addw	a5,a5,a4
    8000077c:	0ff7f793          	andi	a5,a5,255
    80000780:	00379693          	slli	a3,a5,0x3
    80000784:	00082717          	auipc	a4,0x82
    80000788:	e1470713          	addi	a4,a4,-492 # 80082598 <OSTCBPrioTbl>
    8000078c:	9736                	add	a4,a4,a3
    8000078e:	6318                	ld	a4,0(a4)
    80000790:	00080697          	auipc	a3,0x80
    80000794:	ccf68923          	sb	a5,-814(a3) # 80080462 <OSPrioHighRdy>
    80000798:	00080697          	auipc	a3,0x80
    8000079c:	1ef68823          	sb	a5,496(a3) # 80080988 <OSPrioCur>
    800007a0:	00080797          	auipc	a5,0x80
    800007a4:	7ae7b823          	sd	a4,1968(a5) # 80080f50 <OSTCBHighRdy>
    800007a8:	00081797          	auipc	a5,0x81
    800007ac:	bce7bc23          	sd	a4,-1064(a5) # 80081380 <OSTCBCur>
    800007b0:	7600406f          	j	80004f10 <OSStartHighRdy>

00000000800007b4 <OSTimeTick>:
    800007b4:	7179                	addi	sp,sp,-48
    800007b6:	f406                	sd	ra,40(sp)
    800007b8:	f022                	sd	s0,32(sp)
    800007ba:	ec26                	sd	s1,24(sp)
    800007bc:	e84a                	sd	s2,16(sp)
    800007be:	e44e                	sd	s3,8(sp)
    800007c0:	e052                	sd	s4,0(sp)
    800007c2:	0e7040ef          	jal	ra,800050a8 <OSTimeTickHook>
    800007c6:	73a040ef          	jal	ra,80004f00 <OS_CPU_SR_Save>
    800007ca:	00081797          	auipc	a5,0x81
    800007ce:	bc278793          	addi	a5,a5,-1086 # 8008138c <OSTime>
    800007d2:	439c                	lw	a5,0(a5)
    800007d4:	2785                	addiw	a5,a5,1
    800007d6:	00081717          	auipc	a4,0x81
    800007da:	baf72b23          	sw	a5,-1098(a4) # 8008138c <OSTime>
    800007de:	72c040ef          	jal	ra,80004f0a <OS_CPU_SR_Restore>
    800007e2:	00080797          	auipc	a5,0x80
    800007e6:	c767c783          	lbu	a5,-906(a5) # 80080458 <OSRunning>
    800007ea:	4705                	li	a4,1
    800007ec:	00e78a63          	beq	a5,a4,80000800 <OSTimeTick+0x4c>
    800007f0:	70a2                	ld	ra,40(sp)
    800007f2:	7402                	ld	s0,32(sp)
    800007f4:	64e2                	ld	s1,24(sp)
    800007f6:	6942                	ld	s2,16(sp)
    800007f8:	69a2                	ld	s3,8(sp)
    800007fa:	6a02                	ld	s4,0(sp)
    800007fc:	6145                	addi	sp,sp,48
    800007fe:	8082                	ret
    80000800:	00080717          	auipc	a4,0x80
    80000804:	26074703          	lbu	a4,608(a4) # 80080a60 <OSTickStepState>
    80000808:	fef704e3          	beq	a4,a5,800007f0 <OSTimeTick+0x3c>
    8000080c:	cb01                	beqz	a4,8000081c <OSTimeTick+0x68>
    8000080e:	4689                	li	a3,2
    80000810:	08d71f63          	bne	a4,a3,800008ae <OSTimeTick+0xfa>
    80000814:	00080717          	auipc	a4,0x80
    80000818:	24f70623          	sb	a5,588(a4) # 80080a60 <OSTickStepState>
    8000081c:	00080797          	auipc	a5,0x80
    80000820:	17478793          	addi	a5,a5,372 # 80080990 <OSTCBList>
    80000824:	6380                	ld	s0,0(a5)
    80000826:	03f00793          	li	a5,63
    8000082a:	05a44703          	lbu	a4,90(s0)
    8000082e:	fcf701e3          	beq	a4,a5,800007f0 <OSTimeTick+0x3c>
    80000832:	00080a17          	auipc	s4,0x80
    80000836:	72ea0a13          	addi	s4,s4,1838 # 80080f60 <OSRdyGrp>
    8000083a:	00080997          	auipc	s3,0x80
    8000083e:	72e98993          	addi	s3,s3,1838 # 80080f68 <OSRdyTbl>
    80000842:	4905                	li	s2,1
    80000844:	03f00493          	li	s1,63
    80000848:	a099                	j	8000088e <OSTimeTick+0xda>
    8000084a:	0c87f793          	andi	a5,a5,200
    8000084e:	04f40c23          	sb	a5,88(s0)
    80000852:	05240ca3          	sb	s2,89(s0)
    80000856:	8ba1                	andi	a5,a5,8
    80000858:	e785                	bnez	a5,80000880 <OSTimeTick+0xcc>
    8000085a:	05c44783          	lbu	a5,92(s0)
    8000085e:	000a4583          	lbu	a1,0(s4)
    80000862:	05e44683          	lbu	a3,94(s0)
    80000866:	97ce                	add	a5,a5,s3
    80000868:	0007c703          	lbu	a4,0(a5)
    8000086c:	05d44603          	lbu	a2,93(s0)
    80000870:	8ecd                	or	a3,a3,a1
    80000872:	00080597          	auipc	a1,0x80
    80000876:	6ed58723          	sb	a3,1774(a1) # 80080f60 <OSRdyGrp>
    8000087a:	8f51                	or	a4,a4,a2
    8000087c:	00e78023          	sb	a4,0(a5)
    80000880:	7000                	ld	s0,32(s0)
    80000882:	688040ef          	jal	ra,80004f0a <OS_CPU_SR_Restore>
    80000886:	05a44783          	lbu	a5,90(s0)
    8000088a:	f69783e3          	beq	a5,s1,800007f0 <OSTimeTick+0x3c>
    8000088e:	672040ef          	jal	ra,80004f00 <OS_CPU_SR_Save>
    80000892:	487c                	lw	a5,84(s0)
    80000894:	fff7869b          	addiw	a3,a5,-1
    80000898:	d7e5                	beqz	a5,80000880 <OSTimeTick+0xcc>
    8000089a:	c874                	sw	a3,84(s0)
    8000089c:	f2f5                	bnez	a3,80000880 <OSTimeTick+0xcc>
    8000089e:	05844783          	lbu	a5,88(s0)
    800008a2:	0377f713          	andi	a4,a5,55
    800008a6:	f355                	bnez	a4,8000084a <OSTimeTick+0x96>
    800008a8:	04040ca3          	sb	zero,89(s0)
    800008ac:	b76d                	j	80000856 <OSTimeTick+0xa2>
    800008ae:	00080797          	auipc	a5,0x80
    800008b2:	1a078923          	sb	zero,434(a5) # 80080a60 <OSTickStepState>
    800008b6:	b79d                	j	8000081c <OSTimeTick+0x68>

00000000800008b8 <OSVersion>:
    800008b8:	12300513          	li	a0,291
    800008bc:	8082                	ret

00000000800008be <OS_Dummy>:
    800008be:	8082                	ret

00000000800008c0 <OS_EventTaskRdy>:
    800008c0:	01254783          	lbu	a5,18(a0)
    800008c4:	0007f717          	auipc	a4,0x7f
    800008c8:	73c70713          	addi	a4,a4,1852 # 80080000 <OSUnMapTbl>
    800008cc:	832a                	mv	t1,a0
    800008ce:	97ba                	add	a5,a5,a4
    800008d0:	0007c783          	lbu	a5,0(a5)
    800008d4:	fff64613          	not	a2,a2
    800008d8:	0007889b          	sext.w	a7,a5
    800008dc:	9546                	add	a0,a0,a7
    800008de:	01354503          	lbu	a0,19(a0)
    800008e2:	0037979b          	slliw	a5,a5,0x3
    800008e6:	972a                	add	a4,a4,a0
    800008e8:	00074503          	lbu	a0,0(a4)
    800008ec:	9fa9                	addw	a5,a5,a0
    800008ee:	0ff7f513          	andi	a0,a5,255
    800008f2:	00351713          	slli	a4,a0,0x3
    800008f6:	00082797          	auipc	a5,0x82
    800008fa:	ca278793          	addi	a5,a5,-862 # 80082598 <OSTCBPrioTbl>
    800008fe:	97ba                	add	a5,a5,a4
    80000900:	0007b803          	ld	a6,0(a5)
    80000904:	05884783          	lbu	a5,88(a6)
    80000908:	04082a23          	sw	zero,84(a6)
    8000090c:	04b83023          	sd	a1,64(a6)
    80000910:	8e7d                	and	a2,a2,a5
    80000912:	04c80c23          	sb	a2,88(a6)
    80000916:	04d80ca3          	sb	a3,89(a6)
    8000091a:	8a21                	andi	a2,a2,8
    8000091c:	05d84783          	lbu	a5,93(a6)
    80000920:	e615                	bnez	a2,8000094c <OS_EventTaskRdy+0x8c>
    80000922:	00080717          	auipc	a4,0x80
    80000926:	64670713          	addi	a4,a4,1606 # 80080f68 <OSRdyTbl>
    8000092a:	9746                	add	a4,a4,a7
    8000092c:	00074683          	lbu	a3,0(a4)
    80000930:	05e84603          	lbu	a2,94(a6)
    80000934:	00080597          	auipc	a1,0x80
    80000938:	62c5c583          	lbu	a1,1580(a1) # 80080f60 <OSRdyGrp>
    8000093c:	8edd                	or	a3,a3,a5
    8000093e:	8e4d                	or	a2,a2,a1
    80000940:	00080597          	auipc	a1,0x80
    80000944:	62c58023          	sb	a2,1568(a1) # 80080f60 <OSRdyGrp>
    80000948:	00d70023          	sb	a3,0(a4)
    8000094c:	05c84703          	lbu	a4,92(a6)
    80000950:	fff7c793          	not	a5,a5
    80000954:	971a                	add	a4,a4,t1
    80000956:	01374683          	lbu	a3,19(a4)
    8000095a:	8ff5                	and	a5,a5,a3
    8000095c:	00f709a3          	sb	a5,19(a4)
    80000960:	c7b9                	beqz	a5,800009ae <OS_EventTaskRdy+0xee>
    80000962:	03883683          	ld	a3,56(a6)
    80000966:	c2b9                	beqz	a3,800009ac <OS_EventTaskRdy+0xec>
    80000968:	6298                	ld	a4,0(a3)
    8000096a:	05c84883          	lbu	a7,92(a6)
    8000096e:	05e84e03          	lbu	t3,94(a6)
    80000972:	05d84583          	lbu	a1,93(a6)
    80000976:	cb0d                	beqz	a4,800009a8 <OS_EventTaskRdy+0xe8>
    80000978:	fff5c593          	not	a1,a1
    8000097c:	2881                	sext.w	a7,a7
    8000097e:	0ff5f593          	andi	a1,a1,255
    80000982:	fffe4e13          	not	t3,t3
    80000986:	01170633          	add	a2,a4,a7
    8000098a:	01364783          	lbu	a5,19(a2)
    8000098e:	06a1                	addi	a3,a3,8
    80000990:	8fed                	and	a5,a5,a1
    80000992:	00f609a3          	sb	a5,19(a2)
    80000996:	e799                	bnez	a5,800009a4 <OS_EventTaskRdy+0xe4>
    80000998:	01274783          	lbu	a5,18(a4)
    8000099c:	00fe77b3          	and	a5,t3,a5
    800009a0:	00f70923          	sb	a5,18(a4)
    800009a4:	6298                	ld	a4,0(a3)
    800009a6:	f365                	bnez	a4,80000986 <OS_EventTaskRdy+0xc6>
    800009a8:	02683823          	sd	t1,48(a6)
    800009ac:	8082                	ret
    800009ae:	05e84783          	lbu	a5,94(a6)
    800009b2:	01234703          	lbu	a4,18(t1)
    800009b6:	fff7c793          	not	a5,a5
    800009ba:	8ff9                	and	a5,a5,a4
    800009bc:	00f30923          	sb	a5,18(t1)
    800009c0:	b74d                	j	80000962 <OS_EventTaskRdy+0xa2>

00000000800009c2 <OS_EventTaskWait>:
    800009c2:	00081797          	auipc	a5,0x81
    800009c6:	9be78793          	addi	a5,a5,-1602 # 80081380 <OSTCBCur>
    800009ca:	639c                	ld	a5,0(a5)
    800009cc:	05c7c703          	lbu	a4,92(a5)
    800009d0:	fb88                	sd	a0,48(a5)
    800009d2:	05d7c603          	lbu	a2,93(a5)
    800009d6:	972a                	add	a4,a4,a0
    800009d8:	01374683          	lbu	a3,19(a4)
    800009dc:	8ed1                	or	a3,a3,a2
    800009de:	00d709a3          	sb	a3,19(a4)
    800009e2:	05e7c683          	lbu	a3,94(a5)
    800009e6:	01254703          	lbu	a4,18(a0)
    800009ea:	8f55                	or	a4,a4,a3
    800009ec:	00e50923          	sb	a4,18(a0)
    800009f0:	05c7c603          	lbu	a2,92(a5)
    800009f4:	00080697          	auipc	a3,0x80
    800009f8:	57468693          	addi	a3,a3,1396 # 80080f68 <OSRdyTbl>
    800009fc:	05d7c703          	lbu	a4,93(a5)
    80000a00:	96b2                	add	a3,a3,a2
    80000a02:	0006c603          	lbu	a2,0(a3)
    80000a06:	fff74713          	not	a4,a4
    80000a0a:	8f71                	and	a4,a4,a2
    80000a0c:	00e68023          	sb	a4,0(a3)
    80000a10:	ef11                	bnez	a4,80000a2c <OS_EventTaskWait+0x6a>
    80000a12:	05e7c783          	lbu	a5,94(a5)
    80000a16:	00080717          	auipc	a4,0x80
    80000a1a:	54a74703          	lbu	a4,1354(a4) # 80080f60 <OSRdyGrp>
    80000a1e:	fff7c793          	not	a5,a5
    80000a22:	8ff9                	and	a5,a5,a4
    80000a24:	00080717          	auipc	a4,0x80
    80000a28:	52f70e23          	sb	a5,1340(a4) # 80080f60 <OSRdyGrp>
    80000a2c:	8082                	ret

0000000080000a2e <OS_EventTaskWaitMulti>:
    80000a2e:	00081797          	auipc	a5,0x81
    80000a32:	95278793          	addi	a5,a5,-1710 # 80081380 <OSTCBCur>
    80000a36:	6390                	ld	a2,0(a5)
    80000a38:	02063823          	sd	zero,48(a2)
    80000a3c:	fe08                	sd	a0,56(a2)
    80000a3e:	611c                	ld	a5,0(a0)
    80000a40:	c78d                	beqz	a5,80000a6a <OS_EventTaskWaitMulti+0x3c>
    80000a42:	05c64703          	lbu	a4,92(a2)
    80000a46:	05d64583          	lbu	a1,93(a2)
    80000a4a:	0521                	addi	a0,a0,8
    80000a4c:	973e                	add	a4,a4,a5
    80000a4e:	01374683          	lbu	a3,19(a4)
    80000a52:	8ecd                	or	a3,a3,a1
    80000a54:	00d709a3          	sb	a3,19(a4)
    80000a58:	0127c703          	lbu	a4,18(a5)
    80000a5c:	05e64683          	lbu	a3,94(a2)
    80000a60:	8f55                	or	a4,a4,a3
    80000a62:	00e78923          	sb	a4,18(a5)
    80000a66:	611c                	ld	a5,0(a0)
    80000a68:	ffe9                	bnez	a5,80000a42 <OS_EventTaskWaitMulti+0x14>
    80000a6a:	05c64683          	lbu	a3,92(a2)
    80000a6e:	00080717          	auipc	a4,0x80
    80000a72:	4fa70713          	addi	a4,a4,1274 # 80080f68 <OSRdyTbl>
    80000a76:	05d64783          	lbu	a5,93(a2)
    80000a7a:	9736                	add	a4,a4,a3
    80000a7c:	00074683          	lbu	a3,0(a4)
    80000a80:	fff7c793          	not	a5,a5
    80000a84:	8ff5                	and	a5,a5,a3
    80000a86:	00f70023          	sb	a5,0(a4)
    80000a8a:	ef91                	bnez	a5,80000aa6 <OS_EventTaskWaitMulti+0x78>
    80000a8c:	05e64783          	lbu	a5,94(a2)
    80000a90:	00080717          	auipc	a4,0x80
    80000a94:	4d074703          	lbu	a4,1232(a4) # 80080f60 <OSRdyGrp>
    80000a98:	fff7c793          	not	a5,a5
    80000a9c:	8ff9                	and	a5,a5,a4
    80000a9e:	00080717          	auipc	a4,0x80
    80000aa2:	4cf70123          	sb	a5,1218(a4) # 80080f60 <OSRdyGrp>
    80000aa6:	8082                	ret

0000000080000aa8 <OS_EventTaskRemove>:
    80000aa8:	05c54703          	lbu	a4,92(a0)
    80000aac:	05d54783          	lbu	a5,93(a0)
    80000ab0:	972e                	add	a4,a4,a1
    80000ab2:	01374683          	lbu	a3,19(a4)
    80000ab6:	fff7c793          	not	a5,a5
    80000aba:	8ff5                	and	a5,a5,a3
    80000abc:	00f709a3          	sb	a5,19(a4)
    80000ac0:	eb91                	bnez	a5,80000ad4 <OS_EventTaskRemove+0x2c>
    80000ac2:	05e54783          	lbu	a5,94(a0)
    80000ac6:	0125c703          	lbu	a4,18(a1)
    80000aca:	fff7c793          	not	a5,a5
    80000ace:	8ff9                	and	a5,a5,a4
    80000ad0:	00f58923          	sb	a5,18(a1)
    80000ad4:	8082                	ret

0000000080000ad6 <OS_EventTaskRemoveMulti>:
    80000ad6:	6198                	ld	a4,0(a1)
    80000ad8:	05c54783          	lbu	a5,92(a0)
    80000adc:	05e54803          	lbu	a6,94(a0)
    80000ae0:	05d54603          	lbu	a2,93(a0)
    80000ae4:	cb15                	beqz	a4,80000b18 <OS_EventTaskRemoveMulti+0x42>
    80000ae6:	fff64613          	not	a2,a2
    80000aea:	0007851b          	sext.w	a0,a5
    80000aee:	0ff67613          	andi	a2,a2,255
    80000af2:	fff84813          	not	a6,a6
    80000af6:	00a706b3          	add	a3,a4,a0
    80000afa:	0136c783          	lbu	a5,19(a3)
    80000afe:	05a1                	addi	a1,a1,8
    80000b00:	8ff1                	and	a5,a5,a2
    80000b02:	00f689a3          	sb	a5,19(a3)
    80000b06:	e799                	bnez	a5,80000b14 <OS_EventTaskRemoveMulti+0x3e>
    80000b08:	01274783          	lbu	a5,18(a4)
    80000b0c:	00f877b3          	and	a5,a6,a5
    80000b10:	00f70923          	sb	a5,18(a4)
    80000b14:	6198                	ld	a4,0(a1)
    80000b16:	f365                	bnez	a4,80000af6 <OS_EventTaskRemoveMulti+0x20>
    80000b18:	8082                	ret

0000000080000b1a <OS_EventWaitListInit>:
    80000b1a:	00051923          	sh	zero,18(a0)
    80000b1e:	00051a23          	sh	zero,20(a0)
    80000b22:	00051b23          	sh	zero,22(a0)
    80000b26:	00051c23          	sh	zero,24(a0)
    80000b2a:	00050d23          	sb	zero,26(a0)
    80000b2e:	8082                	ret

0000000080000b30 <OS_MemClr>:
    80000b30:	cd81                	beqz	a1,80000b48 <OS_MemClr+0x18>
    80000b32:	fff5879b          	addiw	a5,a1,-1
    80000b36:	17c2                	slli	a5,a5,0x30
    80000b38:	93c1                	srli	a5,a5,0x30
    80000b3a:	0785                	addi	a5,a5,1
    80000b3c:	97aa                	add	a5,a5,a0
    80000b3e:	0505                	addi	a0,a0,1
    80000b40:	fe050fa3          	sb	zero,-1(a0)
    80000b44:	fef51de3          	bne	a0,a5,80000b3e <OS_MemClr+0xe>
    80000b48:	8082                	ret

0000000080000b4a <OS_MemCopy>:
    80000b4a:	ce19                	beqz	a2,80000b68 <OS_MemCopy+0x1e>
    80000b4c:	fff6079b          	addiw	a5,a2,-1
    80000b50:	17c2                	slli	a5,a5,0x30
    80000b52:	93c1                	srli	a5,a5,0x30
    80000b54:	0785                	addi	a5,a5,1
    80000b56:	97aa                	add	a5,a5,a0
    80000b58:	0585                	addi	a1,a1,1
    80000b5a:	fff5c703          	lbu	a4,-1(a1)
    80000b5e:	0505                	addi	a0,a0,1
    80000b60:	fee50fa3          	sb	a4,-1(a0)
    80000b64:	fea79ae3          	bne	a5,a0,80000b58 <OS_MemCopy+0xe>
    80000b68:	8082                	ret

0000000080000b6a <OS_Sched>:
    80000b6a:	1101                	addi	sp,sp,-32
    80000b6c:	ec06                	sd	ra,24(sp)
    80000b6e:	392040ef          	jal	ra,80004f00 <OS_CPU_SR_Save>
    80000b72:	00081797          	auipc	a5,0x81
    80000b76:	8067c783          	lbu	a5,-2042(a5) # 80081378 <OSIntNesting>
    80000b7a:	e7d9                	bnez	a5,80000c08 <OS_Sched+0x9e>
    80000b7c:	00080797          	auipc	a5,0x80
    80000b80:	8cc7c783          	lbu	a5,-1844(a5) # 80080448 <OSLockNesting>
    80000b84:	e3d1                	bnez	a5,80000c08 <OS_Sched+0x9e>
    80000b86:	0007f717          	auipc	a4,0x7f
    80000b8a:	47a70713          	addi	a4,a4,1146 # 80080000 <OSUnMapTbl>
    80000b8e:	00080797          	auipc	a5,0x80
    80000b92:	3d27c783          	lbu	a5,978(a5) # 80080f60 <OSRdyGrp>
    80000b96:	97ba                	add	a5,a5,a4
    80000b98:	0007c783          	lbu	a5,0(a5)
    80000b9c:	00080697          	auipc	a3,0x80
    80000ba0:	3cc68693          	addi	a3,a3,972 # 80080f68 <OSRdyTbl>
    80000ba4:	96be                	add	a3,a3,a5
    80000ba6:	0006c603          	lbu	a2,0(a3)
    80000baa:	0037979b          	slliw	a5,a5,0x3
    80000bae:	00080697          	auipc	a3,0x80
    80000bb2:	dda6c683          	lbu	a3,-550(a3) # 80080988 <OSPrioCur>
    80000bb6:	9732                	add	a4,a4,a2
    80000bb8:	00074703          	lbu	a4,0(a4)
    80000bbc:	9fb9                	addw	a5,a5,a4
    80000bbe:	0ff7f793          	andi	a5,a5,255
    80000bc2:	00379613          	slli	a2,a5,0x3
    80000bc6:	00082717          	auipc	a4,0x82
    80000bca:	9d270713          	addi	a4,a4,-1582 # 80082598 <OSTCBPrioTbl>
    80000bce:	9732                	add	a4,a4,a2
    80000bd0:	6318                	ld	a4,0(a4)
    80000bd2:	00080617          	auipc	a2,0x80
    80000bd6:	88f60823          	sb	a5,-1904(a2) # 80080462 <OSPrioHighRdy>
    80000bda:	00080617          	auipc	a2,0x80
    80000bde:	36e63b23          	sd	a4,886(a2) # 80080f50 <OSTCBHighRdy>
    80000be2:	02f68363          	beq	a3,a5,80000c08 <OS_Sched+0x9e>
    80000be6:	5334                	lw	a3,96(a4)
    80000be8:	00080797          	auipc	a5,0x80
    80000bec:	28078793          	addi	a5,a5,640 # 80080e68 <OSCtxSwCtr>
    80000bf0:	439c                	lw	a5,0(a5)
    80000bf2:	2685                	addiw	a3,a3,1
    80000bf4:	d334                	sw	a3,96(a4)
    80000bf6:	2785                	addiw	a5,a5,1
    80000bf8:	e42a                	sd	a0,8(sp)
    80000bfa:	00080717          	auipc	a4,0x80
    80000bfe:	26f72723          	sw	a5,622(a4) # 80080e68 <OSCtxSwCtr>
    80000c02:	37e040ef          	jal	ra,80004f80 <OSCtxSw>
    80000c06:	6522                	ld	a0,8(sp)
    80000c08:	60e2                	ld	ra,24(sp)
    80000c0a:	6105                	addi	sp,sp,32
    80000c0c:	2fe0406f          	j	80004f0a <OS_CPU_SR_Restore>

0000000080000c10 <OSEventPendMulti>:
    80000c10:	715d                	addi	sp,sp,-80
    80000c12:	e0a2                	sd	s0,64(sp)
    80000c14:	e486                	sd	ra,72(sp)
    80000c16:	fc26                	sd	s1,56(sp)
    80000c18:	f84a                	sd	s2,48(sp)
    80000c1a:	f44e                	sd	s3,40(sp)
    80000c1c:	f052                	sd	s4,32(sp)
    80000c1e:	0005b023          	sd	zero,0(a1)
    80000c22:	611c                	ld	a5,0(a0)
    80000c24:	842a                	mv	s0,a0
    80000c26:	cb95                	beqz	a5,80000c5a <OSEventPendMulti+0x4a>
    80000c28:	4809                	li	a6,2
    80000c2a:	a019                	j	80000c30 <OSEventPendMulti+0x20>
    80000c2c:	611c                	ld	a5,0(a0)
    80000c2e:	c795                	beqz	a5,80000c5a <OSEventPendMulti+0x4a>
    80000c30:	0007c783          	lbu	a5,0(a5)
    80000c34:	0521                	addi	a0,a0,8
    80000c36:	37fd                	addiw	a5,a5,-1
    80000c38:	0ff7f793          	andi	a5,a5,255
    80000c3c:	fef878e3          	bleu	a5,a6,80000c2c <OSEventPendMulti+0x1c>
    80000c40:	4785                	li	a5,1
    80000c42:	00f70023          	sb	a5,0(a4)
    80000c46:	4481                	li	s1,0
    80000c48:	60a6                	ld	ra,72(sp)
    80000c4a:	6406                	ld	s0,64(sp)
    80000c4c:	8526                	mv	a0,s1
    80000c4e:	7942                	ld	s2,48(sp)
    80000c50:	74e2                	ld	s1,56(sp)
    80000c52:	79a2                	ld	s3,40(sp)
    80000c54:	7a02                	ld	s4,32(sp)
    80000c56:	6161                	addi	sp,sp,80
    80000c58:	8082                	ret
    80000c5a:	00080797          	auipc	a5,0x80
    80000c5e:	71e7c783          	lbu	a5,1822(a5) # 80081378 <OSIntNesting>
    80000c62:	ef81                	bnez	a5,80000c7a <OSEventPendMulti+0x6a>
    80000c64:	0007f917          	auipc	s2,0x7f
    80000c68:	7e494903          	lbu	s2,2020(s2) # 80080448 <OSLockNesting>
    80000c6c:	00090c63          	beqz	s2,80000c84 <OSEventPendMulti+0x74>
    80000c70:	47b5                	li	a5,13
    80000c72:	00f70023          	sb	a5,0(a4)
    80000c76:	4481                	li	s1,0
    80000c78:	bfc1                	j	80000c48 <OSEventPendMulti+0x38>
    80000c7a:	4789                	li	a5,2
    80000c7c:	00f70023          	sb	a5,0(a4)
    80000c80:	4481                	li	s1,0
    80000c82:	b7d9                	j	80000c48 <OSEventPendMulti+0x38>
    80000c84:	ec3a                	sd	a4,24(sp)
    80000c86:	e836                	sd	a3,16(sp)
    80000c88:	e432                	sd	a2,8(sp)
    80000c8a:	e02e                	sd	a1,0(sp)
    80000c8c:	274040ef          	jal	ra,80004f00 <OS_CPU_SR_Save>
    80000c90:	601c                	ld	a5,0(s0)
    80000c92:	8a2a                	mv	s4,a0
    80000c94:	6582                	ld	a1,0(sp)
    80000c96:	6622                	ld	a2,8(sp)
    80000c98:	66c2                	ld	a3,16(sp)
    80000c9a:	6762                	ld	a4,24(sp)
    80000c9c:	cff1                	beqz	a5,80000d78 <OSEventPendMulti+0x168>
    80000c9e:	8822                	mv	a6,s0
    80000ca0:	4481                	li	s1,0
    80000ca2:	4e01                	li	t3,0
    80000ca4:	4889                	li	a7,2
    80000ca6:	4985                	li	s3,1
    80000ca8:	430d                	li	t1,3
    80000caa:	0007c503          	lbu	a0,0(a5)
    80000cae:	03150263          	beq	a0,a7,80000cd2 <OSEventPendMulti+0xc2>
    80000cb2:	08650f63          	beq	a0,t1,80000d50 <OSEventPendMulti+0x140>
    80000cb6:	07350163          	beq	a0,s3,80000d18 <OSEventPendMulti+0x108>
    80000cba:	8552                	mv	a0,s4
    80000cbc:	e43a                	sd	a4,8(sp)
    80000cbe:	e02e                	sd	a1,0(sp)
    80000cc0:	24a040ef          	jal	ra,80004f0a <OS_CPU_SR_Restore>
    80000cc4:	6582                	ld	a1,0(sp)
    80000cc6:	6722                	ld	a4,8(sp)
    80000cc8:	0005b023          	sd	zero,0(a1)
    80000ccc:	01370023          	sb	s3,0(a4)
    80000cd0:	bfa5                	j	80000c48 <OSEventPendMulti+0x38>
    80000cd2:	6788                	ld	a0,8(a5)
    80000cd4:	02a55e83          	lhu	t4,42(a0)
    80000cd8:	080e8a63          	beqz	t4,80000d6c <OSEventPendMulti+0x15c>
    80000cdc:	02053e03          	ld	t3,32(a0)
    80000ce0:	00860e93          	addi	t4,a2,8
    80000ce4:	008e0f13          	addi	t5,t3,8
    80000ce8:	03e53023          	sd	t5,32(a0)
    80000cec:	000e3e03          	ld	t3,0(t3)
    80000cf0:	01c63023          	sd	t3,0(a2)
    80000cf4:	02053e03          	ld	t3,32(a0)
    80000cf8:	6910                	ld	a2,16(a0)
    80000cfa:	14ce0263          	beq	t3,a2,80000e3e <OSEventPendMulti+0x22e>
    80000cfe:	02a55603          	lhu	a2,42(a0)
    80000d02:	2485                	addiw	s1,s1,1
    80000d04:	14c2                	slli	s1,s1,0x30
    80000d06:	367d                	addiw	a2,a2,-1
    80000d08:	02c51523          	sh	a2,42(a0)
    80000d0c:	e19c                	sd	a5,0(a1)
    80000d0e:	90c1                	srli	s1,s1,0x30
    80000d10:	8676                	mv	a2,t4
    80000d12:	05a1                	addi	a1,a1,8
    80000d14:	4e05                	li	t3,1
    80000d16:	a829                	j	80000d30 <OSEventPendMulti+0x120>
    80000d18:	6788                	ld	a0,8(a5)
    80000d1a:	cd21                	beqz	a0,80000d72 <OSEventPendMulti+0x162>
    80000d1c:	e208                	sd	a0,0(a2)
    80000d1e:	0007b423          	sd	zero,8(a5)
    80000d22:	2485                	addiw	s1,s1,1
    80000d24:	e19c                	sd	a5,0(a1)
    80000d26:	14c2                	slli	s1,s1,0x30
    80000d28:	90c1                	srli	s1,s1,0x30
    80000d2a:	0621                	addi	a2,a2,8
    80000d2c:	05a1                	addi	a1,a1,8
    80000d2e:	4e05                	li	t3,1
    80000d30:	0821                	addi	a6,a6,8
    80000d32:	00083783          	ld	a5,0(a6)
    80000d36:	fbb5                	bnez	a5,80000caa <OSEventPendMulti+0x9a>
    80000d38:	040e0163          	beqz	t3,80000d7a <OSEventPendMulti+0x16a>
    80000d3c:	0005b023          	sd	zero,0(a1)
    80000d40:	8552                	mv	a0,s4
    80000d42:	e03a                	sd	a4,0(sp)
    80000d44:	1c6040ef          	jal	ra,80004f0a <OS_CPU_SR_Restore>
    80000d48:	6702                	ld	a4,0(sp)
    80000d4a:	00070023          	sb	zero,0(a4)
    80000d4e:	bded                	j	80000c48 <OSEventPendMulti+0x38>
    80000d50:	0107d503          	lhu	a0,16(a5)
    80000d54:	c909                	beqz	a0,80000d66 <OSEventPendMulti+0x156>
    80000d56:	357d                	addiw	a0,a0,-1
    80000d58:	00a79823          	sh	a0,16(a5)
    80000d5c:	e19c                	sd	a5,0(a1)
    80000d5e:	2485                	addiw	s1,s1,1
    80000d60:	00063023          	sd	zero,0(a2)
    80000d64:	b7c9                	j	80000d26 <OSEventPendMulti+0x116>
    80000d66:	00196913          	ori	s2,s2,1
    80000d6a:	b7d9                	j	80000d30 <OSEventPendMulti+0x120>
    80000d6c:	00496913          	ori	s2,s2,4
    80000d70:	b7c1                	j	80000d30 <OSEventPendMulti+0x120>
    80000d72:	00296913          	ori	s2,s2,2
    80000d76:	bf6d                	j	80000d30 <OSEventPendMulti+0x120>
    80000d78:	4481                	li	s1,0
    80000d7a:	00080997          	auipc	s3,0x80
    80000d7e:	60698993          	addi	s3,s3,1542 # 80081380 <OSTCBCur>
    80000d82:	0009b783          	ld	a5,0(s3)
    80000d86:	8522                	mv	a0,s0
    80000d88:	e83a                	sd	a4,16(sp)
    80000d8a:	0587c803          	lbu	a6,88(a5)
    80000d8e:	cbf4                	sw	a3,84(a5)
    80000d90:	04078ca3          	sb	zero,89(a5)
    80000d94:	f8086693          	ori	a3,a6,-128
    80000d98:	00d96933          	or	s2,s2,a3
    80000d9c:	05278c23          	sb	s2,88(a5)
    80000da0:	e432                	sd	a2,8(sp)
    80000da2:	e02e                	sd	a1,0(sp)
    80000da4:	c8bff0ef          	jal	ra,80000a2e <OS_EventTaskWaitMulti>
    80000da8:	8552                	mv	a0,s4
    80000daa:	160040ef          	jal	ra,80004f0a <OS_CPU_SR_Restore>
    80000dae:	dbdff0ef          	jal	ra,80000b6a <OS_Sched>
    80000db2:	14e040ef          	jal	ra,80004f00 <OS_CPU_SR_Save>
    80000db6:	0009b883          	ld	a7,0(s3)
    80000dba:	6582                	ld	a1,0(sp)
    80000dbc:	6622                	ld	a2,8(sp)
    80000dbe:	0598c683          	lbu	a3,89(a7)
    80000dc2:	6742                	ld	a4,16(sp)
    80000dc4:	c2c1                	beqz	a3,80000e44 <OSEventPendMulti+0x234>
    80000dc6:	4789                	li	a5,2
    80000dc8:	06f68e63          	beq	a3,a5,80000e44 <OSEventPendMulti+0x234>
    80000dcc:	601c                	ld	a5,0(s0)
    80000dce:	05c8ce03          	lbu	t3,92(a7)
    80000dd2:	05e8ce83          	lbu	t4,94(a7)
    80000dd6:	05d8c303          	lbu	t1,93(a7)
    80000dda:	cf85                	beqz	a5,80000e12 <OSEventPendMulti+0x202>
    80000ddc:	fff34313          	not	t1,t1
    80000de0:	2e01                	sext.w	t3,t3
    80000de2:	0ff37313          	andi	t1,t1,255
    80000de6:	fffece93          	not	t4,t4
    80000dea:	01c78833          	add	a6,a5,t3
    80000dee:	01384683          	lbu	a3,19(a6)
    80000df2:	0421                	addi	s0,s0,8
    80000df4:	00d376b3          	and	a3,t1,a3
    80000df8:	00d809a3          	sb	a3,19(a6)
    80000dfc:	e699                	bnez	a3,80000e0a <OSEventPendMulti+0x1fa>
    80000dfe:	0127c683          	lbu	a3,18(a5)
    80000e02:	00def6b3          	and	a3,t4,a3
    80000e06:	00d78923          	sb	a3,18(a5)
    80000e0a:	601c                	ld	a5,0(s0)
    80000e0c:	fff9                	bnez	a5,80000dea <OSEventPendMulti+0x1da>
    80000e0e:	0598c683          	lbu	a3,89(a7)
    80000e12:	ceb1                	beqz	a3,80000e6e <OSEventPendMulti+0x25e>
    80000e14:	4789                	li	a5,2
    80000e16:	04f69663          	bne	a3,a5,80000e62 <OSEventPendMulti+0x252>
    80000e1a:	00063023          	sd	zero,0(a2)
    80000e1e:	47b9                	li	a5,14
    80000e20:	00f70023          	sb	a5,0(a4)
    80000e24:	0009b783          	ld	a5,0(s3)
    80000e28:	04079c23          	sh	zero,88(a5)
    80000e2c:	0207b823          	sd	zero,48(a5)
    80000e30:	0207bc23          	sd	zero,56(a5)
    80000e34:	0407b023          	sd	zero,64(a5)
    80000e38:	0d2040ef          	jal	ra,80004f0a <OS_CPU_SR_Restore>
    80000e3c:	b531                	j	80000c48 <OSEventPendMulti+0x38>
    80000e3e:	6510                	ld	a2,8(a0)
    80000e40:	f110                	sd	a2,32(a0)
    80000e42:	bd75                	j	80000cfe <OSEventPendMulti+0xee>
    80000e44:	0308b783          	ld	a5,48(a7)
    80000e48:	c3a9                	beqz	a5,80000e8a <OSEventPendMulti+0x27a>
    80000e4a:	e19c                	sd	a5,0(a1)
    80000e4c:	0009b883          	ld	a7,0(s3)
    80000e50:	2485                	addiw	s1,s1,1
    80000e52:	0005b423          	sd	zero,8(a1)
    80000e56:	14c2                	slli	s1,s1,0x30
    80000e58:	90c1                	srli	s1,s1,0x30
    80000e5a:	0598c683          	lbu	a3,89(a7)
    80000e5e:	05a1                	addi	a1,a1,8
    80000e60:	bf4d                	j	80000e12 <OSEventPendMulti+0x202>
    80000e62:	00063023          	sd	zero,0(a2)
    80000e66:	47a9                	li	a5,10
    80000e68:	00f70023          	sb	a5,0(a4)
    80000e6c:	bf65                	j	80000e24 <OSEventPendMulti+0x214>
    80000e6e:	0007c783          	lbu	a5,0(a5)
    80000e72:	cba5                	beqz	a5,80000ee2 <OSEventPendMulti+0x2d2>
    80000e74:	4689                	li	a3,2
    80000e76:	06f6f063          	bleu	a5,a3,80000ed6 <OSEventPendMulti+0x2c6>
    80000e7a:	468d                	li	a3,3
    80000e7c:	06d79363          	bne	a5,a3,80000ee2 <OSEventPendMulti+0x2d2>
    80000e80:	00063023          	sd	zero,0(a2)
    80000e84:	00070023          	sb	zero,0(a4)
    80000e88:	bf71                	j	80000e24 <OSEventPendMulti+0x214>
    80000e8a:	4785                	li	a5,1
    80000e8c:	04f88ca3          	sb	a5,89(a7)
    80000e90:	601c                	ld	a5,0(s0)
    80000e92:	dbe1                	beqz	a5,80000e62 <OSEventPendMulti+0x252>
    80000e94:	05d8c803          	lbu	a6,93(a7)
    80000e98:	05e8ce03          	lbu	t3,94(a7)
    80000e9c:	05c8ce83          	lbu	t4,92(a7)
    80000ea0:	fff84813          	not	a6,a6
    80000ea4:	0ff87813          	andi	a6,a6,255
    80000ea8:	fffe4e13          	not	t3,t3
    80000eac:	01d78333          	add	t1,a5,t4
    80000eb0:	01334683          	lbu	a3,19(t1)
    80000eb4:	0421                	addi	s0,s0,8
    80000eb6:	00d876b3          	and	a3,a6,a3
    80000eba:	00d309a3          	sb	a3,19(t1)
    80000ebe:	e699                	bnez	a3,80000ecc <OSEventPendMulti+0x2bc>
    80000ec0:	0127c683          	lbu	a3,18(a5)
    80000ec4:	00de76b3          	and	a3,t3,a3
    80000ec8:	00d78923          	sb	a3,18(a5)
    80000ecc:	601c                	ld	a5,0(s0)
    80000ece:	fff9                	bnez	a5,80000eac <OSEventPendMulti+0x29c>
    80000ed0:	0598c683          	lbu	a3,89(a7)
    80000ed4:	bf3d                	j	80000e12 <OSEventPendMulti+0x202>
    80000ed6:	0408b783          	ld	a5,64(a7)
    80000eda:	e21c                	sd	a5,0(a2)
    80000edc:	00070023          	sb	zero,0(a4)
    80000ee0:	b791                	j	80000e24 <OSEventPendMulti+0x214>
    80000ee2:	e43a                	sd	a4,8(sp)
    80000ee4:	e02e                	sd	a1,0(sp)
    80000ee6:	024040ef          	jal	ra,80004f0a <OS_CPU_SR_Restore>
    80000eea:	6582                	ld	a1,0(sp)
    80000eec:	6722                	ld	a4,8(sp)
    80000eee:	4785                	li	a5,1
    80000ef0:	0005b023          	sd	zero,0(a1)
    80000ef4:	00f70023          	sb	a5,0(a4)
    80000ef8:	bb81                	j	80000c48 <OSEventPendMulti+0x38>

0000000080000efa <OSSchedUnlock.part.3>:
    80000efa:	1141                	addi	sp,sp,-16
    80000efc:	e406                	sd	ra,8(sp)
    80000efe:	002040ef          	jal	ra,80004f00 <OS_CPU_SR_Save>
    80000f02:	0007f797          	auipc	a5,0x7f
    80000f06:	5467c783          	lbu	a5,1350(a5) # 80080448 <OSLockNesting>
    80000f0a:	c785                	beqz	a5,80000f32 <OSSchedUnlock.part.3+0x38>
    80000f0c:	37fd                	addiw	a5,a5,-1
    80000f0e:	0ff7f793          	andi	a5,a5,255
    80000f12:	0007f717          	auipc	a4,0x7f
    80000f16:	52f70b23          	sb	a5,1334(a4) # 80080448 <OSLockNesting>
    80000f1a:	ef81                	bnez	a5,80000f32 <OSSchedUnlock.part.3+0x38>
    80000f1c:	00080797          	auipc	a5,0x80
    80000f20:	45c7c783          	lbu	a5,1116(a5) # 80081378 <OSIntNesting>
    80000f24:	e799                	bnez	a5,80000f32 <OSSchedUnlock.part.3+0x38>
    80000f26:	7e5030ef          	jal	ra,80004f0a <OS_CPU_SR_Restore>
    80000f2a:	60a2                	ld	ra,8(sp)
    80000f2c:	0141                	addi	sp,sp,16
    80000f2e:	c3dff06f          	j	80000b6a <OS_Sched>
    80000f32:	60a2                	ld	ra,8(sp)
    80000f34:	0141                	addi	sp,sp,16
    80000f36:	7d50306f          	j	80004f0a <OS_CPU_SR_Restore>

0000000080000f3a <OSSchedUnlock>:
    80000f3a:	0007f717          	auipc	a4,0x7f
    80000f3e:	51e74703          	lbu	a4,1310(a4) # 80080458 <OSRunning>
    80000f42:	4785                	li	a5,1
    80000f44:	00f70363          	beq	a4,a5,80000f4a <OSSchedUnlock+0x10>
    80000f48:	8082                	ret
    80000f4a:	fb1ff06f          	j	80000efa <OSSchedUnlock.part.3>

0000000080000f4e <OSSemPost.part.5>:
    80000f4e:	1101                	addi	sp,sp,-32
    80000f50:	e822                	sd	s0,16(sp)
    80000f52:	ec06                	sd	ra,24(sp)
    80000f54:	842a                	mv	s0,a0
    80000f56:	e426                	sd	s1,8(sp)
    80000f58:	7a9030ef          	jal	ra,80004f00 <OS_CPU_SR_Save>
    80000f5c:	01244783          	lbu	a5,18(s0)
    80000f60:	e395                	bnez	a5,80000f84 <OSSemPost.part.5+0x36>
    80000f62:	01045783          	lhu	a5,16(s0)
    80000f66:	6741                	lui	a4,0x10
    80000f68:	177d                	addi	a4,a4,-1
    80000f6a:	02e78f63          	beq	a5,a4,80000fa8 <OSSemPost.part.5+0x5a>
    80000f6e:	2785                	addiw	a5,a5,1
    80000f70:	00f41823          	sh	a5,16(s0)
    80000f74:	797030ef          	jal	ra,80004f0a <OS_CPU_SR_Restore>
    80000f78:	60e2                	ld	ra,24(sp)
    80000f7a:	6442                	ld	s0,16(sp)
    80000f7c:	64a2                	ld	s1,8(sp)
    80000f7e:	4501                	li	a0,0
    80000f80:	6105                	addi	sp,sp,32
    80000f82:	8082                	ret
    80000f84:	84aa                	mv	s1,a0
    80000f86:	4681                	li	a3,0
    80000f88:	4605                	li	a2,1
    80000f8a:	4581                	li	a1,0
    80000f8c:	8522                	mv	a0,s0
    80000f8e:	933ff0ef          	jal	ra,800008c0 <OS_EventTaskRdy>
    80000f92:	8526                	mv	a0,s1
    80000f94:	777030ef          	jal	ra,80004f0a <OS_CPU_SR_Restore>
    80000f98:	bd3ff0ef          	jal	ra,80000b6a <OS_Sched>
    80000f9c:	60e2                	ld	ra,24(sp)
    80000f9e:	6442                	ld	s0,16(sp)
    80000fa0:	64a2                	ld	s1,8(sp)
    80000fa2:	4501                	li	a0,0
    80000fa4:	6105                	addi	sp,sp,32
    80000fa6:	8082                	ret
    80000fa8:	763030ef          	jal	ra,80004f0a <OS_CPU_SR_Restore>
    80000fac:	60e2                	ld	ra,24(sp)
    80000fae:	6442                	ld	s0,16(sp)
    80000fb0:	64a2                	ld	s1,8(sp)
    80000fb2:	03300513          	li	a0,51
    80000fb6:	6105                	addi	sp,sp,32
    80000fb8:	8082                	ret

0000000080000fba <OSTaskDel.part.6>:
    80000fba:	7139                	addi	sp,sp,-64
    80000fbc:	f426                	sd	s1,40(sp)
    80000fbe:	fc06                	sd	ra,56(sp)
    80000fc0:	f822                	sd	s0,48(sp)
    80000fc2:	f04a                	sd	s2,32(sp)
    80000fc4:	ec4e                	sd	s3,24(sp)
    80000fc6:	84aa                	mv	s1,a0
    80000fc8:	739030ef          	jal	ra,80004f00 <OS_CPU_SR_Save>
    80000fcc:	0ff00793          	li	a5,255
    80000fd0:	00f49963          	bne	s1,a5,80000fe2 <OSTaskDel.part.6+0x28>
    80000fd4:	00080797          	auipc	a5,0x80
    80000fd8:	3ac78793          	addi	a5,a5,940 # 80081380 <OSTCBCur>
    80000fdc:	639c                	ld	a5,0(a5)
    80000fde:	05a7c483          	lbu	s1,90(a5)
    80000fe2:	00081917          	auipc	s2,0x81
    80000fe6:	5b690913          	addi	s2,s2,1462 # 80082598 <OSTCBPrioTbl>
    80000fea:	048e                	slli	s1,s1,0x3
    80000fec:	009907b3          	add	a5,s2,s1
    80000ff0:	6380                	ld	s0,0(a5)
    80000ff2:	1a040b63          	beqz	s0,800011a8 <OSTaskDel.part.6+0x1ee>
    80000ff6:	4785                	li	a5,1
    80000ff8:	1af40d63          	beq	s0,a5,800011b2 <OSTaskDel.part.6+0x1f8>
    80000ffc:	05c44603          	lbu	a2,92(s0)
    80001000:	05d44783          	lbu	a5,93(s0)
    80001004:	00080697          	auipc	a3,0x80
    80001008:	f6468693          	addi	a3,a3,-156 # 80080f68 <OSRdyTbl>
    8000100c:	96b2                	add	a3,a3,a2
    8000100e:	0006c703          	lbu	a4,0(a3)
    80001012:	fff7c793          	not	a5,a5
    80001016:	0ff7f793          	andi	a5,a5,255
    8000101a:	8f7d                	and	a4,a4,a5
    8000101c:	00e68023          	sb	a4,0(a3)
    80001020:	10070c63          	beqz	a4,80001138 <OSTaskDel.part.6+0x17e>
    80001024:	7818                	ld	a4,48(s0)
    80001026:	cb09                	beqz	a4,80001038 <OSTaskDel.part.6+0x7e>
    80001028:	963a                	add	a2,a2,a4
    8000102a:	01364683          	lbu	a3,19(a2)
    8000102e:	8ff5                	and	a5,a5,a3
    80001030:	00f609a3          	sb	a5,19(a2)
    80001034:	12078e63          	beqz	a5,80001170 <OSTaskDel.part.6+0x1b6>
    80001038:	7c14                	ld	a3,56(s0)
    8000103a:	c2a9                	beqz	a3,8000107c <OSTaskDel.part.6+0xc2>
    8000103c:	6298                	ld	a4,0(a3)
    8000103e:	05c44803          	lbu	a6,92(s0)
    80001042:	05e44883          	lbu	a7,94(s0)
    80001046:	05d44583          	lbu	a1,93(s0)
    8000104a:	cb0d                	beqz	a4,8000107c <OSTaskDel.part.6+0xc2>
    8000104c:	fff5c593          	not	a1,a1
    80001050:	2801                	sext.w	a6,a6
    80001052:	0ff5f593          	andi	a1,a1,255
    80001056:	fff8c893          	not	a7,a7
    8000105a:	01070633          	add	a2,a4,a6
    8000105e:	01364783          	lbu	a5,19(a2)
    80001062:	06a1                	addi	a3,a3,8
    80001064:	8fed                	and	a5,a5,a1
    80001066:	00f609a3          	sb	a5,19(a2)
    8000106a:	e799                	bnez	a5,80001078 <OSTaskDel.part.6+0xbe>
    8000106c:	01274783          	lbu	a5,18(a4) # 10012 <_HEAP_SIZE+0xc012>
    80001070:	00f8f7b3          	and	a5,a7,a5
    80001074:	00f70923          	sb	a5,18(a4)
    80001078:	6298                	ld	a4,0(a3)
    8000107a:	f365                	bnez	a4,8000105a <OSTaskDel.part.6+0xa0>
    8000107c:	643c                	ld	a5,72(s0)
    8000107e:	cb99                	beqz	a5,80001094 <OSTaskDel.part.6+0xda>
    80001080:	6794                	ld	a3,8(a5)
    80001082:	6398                	ld	a4,0(a5)
    80001084:	10068063          	beqz	a3,80001184 <OSTaskDel.part.6+0x1ca>
    80001088:	e298                	sd	a4,0(a3)
    8000108a:	c311                	beqz	a4,8000108e <OSTaskDel.part.6+0xd4>
    8000108c:	e714                	sd	a3,8(a4)
    8000108e:	6b9c                	ld	a5,16(a5)
    80001090:	0407b423          	sd	zero,72(a5)
    80001094:	04042a23          	sw	zero,84(s0)
    80001098:	04041c23          	sh	zero,88(s0)
    8000109c:	0007f797          	auipc	a5,0x7f
    800010a0:	3ac7c783          	lbu	a5,940(a5) # 80080448 <OSLockNesting>
    800010a4:	0ff00713          	li	a4,255
    800010a8:	00e78763          	beq	a5,a4,800010b6 <OSTaskDel.part.6+0xfc>
    800010ac:	2785                	addiw	a5,a5,1
    800010ae:	0007f717          	auipc	a4,0x7f
    800010b2:	38f70d23          	sb	a5,922(a4) # 80080448 <OSLockNesting>
    800010b6:	655030ef          	jal	ra,80004f0a <OS_CPU_SR_Restore>
    800010ba:	647030ef          	jal	ra,80004f00 <OS_CPU_SR_Save>
    800010be:	0007f797          	auipc	a5,0x7f
    800010c2:	38a7c783          	lbu	a5,906(a5) # 80080448 <OSLockNesting>
    800010c6:	89aa                	mv	s3,a0
    800010c8:	e7d1                	bnez	a5,80001154 <OSTaskDel.part.6+0x19a>
    800010ca:	8522                	mv	a0,s0
    800010cc:	94ca                	add	s1,s1,s2
    800010ce:	7d1030ef          	jal	ra,8000509e <OSTaskDelHook>
    800010d2:	0004b023          	sd	zero,0(s1)
    800010d6:	00080797          	auipc	a5,0x80
    800010da:	dab7c783          	lbu	a5,-597(a5) # 80080e81 <OSTaskCtr>
    800010de:	7418                	ld	a4,40(s0)
    800010e0:	37fd                	addiw	a5,a5,-1
    800010e2:	00080697          	auipc	a3,0x80
    800010e6:	d8f68fa3          	sb	a5,-609(a3) # 80080e81 <OSTaskCtr>
    800010ea:	701c                	ld	a5,32(s0)
    800010ec:	cb35                	beqz	a4,80001160 <OSTaskDel.part.6+0x1a6>
    800010ee:	f31c                	sd	a5,32(a4)
    800010f0:	701c                	ld	a5,32(s0)
    800010f2:	7418                	ld	a4,40(s0)
    800010f4:	f798                	sd	a4,40(a5)
    800010f6:	00080797          	auipc	a5,0x80
    800010fa:	d8278793          	addi	a5,a5,-638 # 80080e78 <OSTCBFreeList>
    800010fe:	639c                	ld	a5,0(a5)
    80001100:	0007f717          	auipc	a4,0x7f
    80001104:	16070713          	addi	a4,a4,352 # 80080260 <OSUnMapTbl+0x260>
    80001108:	e058                	sd	a4,128(s0)
    8000110a:	f01c                	sd	a5,32(s0)
    8000110c:	854e                	mv	a0,s3
    8000110e:	00080797          	auipc	a5,0x80
    80001112:	d687b523          	sd	s0,-662(a5) # 80080e78 <OSTCBFreeList>
    80001116:	5f5030ef          	jal	ra,80004f0a <OS_CPU_SR_Restore>
    8000111a:	0007f717          	auipc	a4,0x7f
    8000111e:	33e74703          	lbu	a4,830(a4) # 80080458 <OSRunning>
    80001122:	4785                	li	a5,1
    80001124:	4501                	li	a0,0
    80001126:	06f70663          	beq	a4,a5,80001192 <OSTaskDel.part.6+0x1d8>
    8000112a:	70e2                	ld	ra,56(sp)
    8000112c:	7442                	ld	s0,48(sp)
    8000112e:	74a2                	ld	s1,40(sp)
    80001130:	7902                	ld	s2,32(sp)
    80001132:	69e2                	ld	s3,24(sp)
    80001134:	6121                	addi	sp,sp,64
    80001136:	8082                	ret
    80001138:	05e44703          	lbu	a4,94(s0)
    8000113c:	00080697          	auipc	a3,0x80
    80001140:	e246c683          	lbu	a3,-476(a3) # 80080f60 <OSRdyGrp>
    80001144:	fff74713          	not	a4,a4
    80001148:	8f75                	and	a4,a4,a3
    8000114a:	00080697          	auipc	a3,0x80
    8000114e:	e0e68b23          	sb	a4,-490(a3) # 80080f60 <OSRdyGrp>
    80001152:	bdc9                	j	80001024 <OSTaskDel.part.6+0x6a>
    80001154:	37fd                	addiw	a5,a5,-1
    80001156:	0007f717          	auipc	a4,0x7f
    8000115a:	2ef70923          	sb	a5,754(a4) # 80080448 <OSLockNesting>
    8000115e:	b7b5                	j	800010ca <OSTaskDel.part.6+0x110>
    80001160:	0207b423          	sd	zero,40(a5)
    80001164:	701c                	ld	a5,32(s0)
    80001166:	00080717          	auipc	a4,0x80
    8000116a:	82f73523          	sd	a5,-2006(a4) # 80080990 <OSTCBList>
    8000116e:	b761                	j	800010f6 <OSTaskDel.part.6+0x13c>
    80001170:	05e44783          	lbu	a5,94(s0)
    80001174:	01274683          	lbu	a3,18(a4)
    80001178:	fff7c793          	not	a5,a5
    8000117c:	8ff5                	and	a5,a5,a3
    8000117e:	00f70923          	sb	a5,18(a4)
    80001182:	bd5d                	j	80001038 <OSTaskDel.part.6+0x7e>
    80001184:	6f94                	ld	a3,24(a5)
    80001186:	e698                	sd	a4,8(a3)
    80001188:	f00703e3          	beqz	a4,8000108e <OSTaskDel.part.6+0xd4>
    8000118c:	00073423          	sd	zero,8(a4)
    80001190:	bdfd                	j	8000108e <OSTaskDel.part.6+0xd4>
    80001192:	e42a                	sd	a0,8(sp)
    80001194:	9d7ff0ef          	jal	ra,80000b6a <OS_Sched>
    80001198:	70e2                	ld	ra,56(sp)
    8000119a:	7442                	ld	s0,48(sp)
    8000119c:	6522                	ld	a0,8(sp)
    8000119e:	74a2                	ld	s1,40(sp)
    800011a0:	7902                	ld	s2,32(sp)
    800011a2:	69e2                	ld	s3,24(sp)
    800011a4:	6121                	addi	sp,sp,64
    800011a6:	8082                	ret
    800011a8:	563030ef          	jal	ra,80004f0a <OS_CPU_SR_Restore>
    800011ac:	04300513          	li	a0,67
    800011b0:	bfad                	j	8000112a <OSTaskDel.part.6+0x170>
    800011b2:	559030ef          	jal	ra,80004f0a <OS_CPU_SR_Restore>
    800011b6:	03d00513          	li	a0,61
    800011ba:	bf85                	j	8000112a <OSTaskDel.part.6+0x170>

00000000800011bc <OSTimeDly.part.9>:
    800011bc:	1141                	addi	sp,sp,-16
    800011be:	e022                	sd	s0,0(sp)
    800011c0:	e406                	sd	ra,8(sp)
    800011c2:	842a                	mv	s0,a0
    800011c4:	53d030ef          	jal	ra,80004f00 <OS_CPU_SR_Save>
    800011c8:	00080797          	auipc	a5,0x80
    800011cc:	1b878793          	addi	a5,a5,440 # 80081380 <OSTCBCur>
    800011d0:	6394                	ld	a3,0(a5)
    800011d2:	00080717          	auipc	a4,0x80
    800011d6:	d9670713          	addi	a4,a4,-618 # 80080f68 <OSRdyTbl>
    800011da:	05c6c603          	lbu	a2,92(a3)
    800011de:	05d6c783          	lbu	a5,93(a3)
    800011e2:	9732                	add	a4,a4,a2
    800011e4:	00074603          	lbu	a2,0(a4)
    800011e8:	fff7c793          	not	a5,a5
    800011ec:	8ff1                	and	a5,a5,a2
    800011ee:	00f70023          	sb	a5,0(a4)
    800011f2:	ef91                	bnez	a5,8000120e <OSTimeDly.part.9+0x52>
    800011f4:	05e6c783          	lbu	a5,94(a3)
    800011f8:	00080717          	auipc	a4,0x80
    800011fc:	d6874703          	lbu	a4,-664(a4) # 80080f60 <OSRdyGrp>
    80001200:	fff7c793          	not	a5,a5
    80001204:	8ff9                	and	a5,a5,a4
    80001206:	00080717          	auipc	a4,0x80
    8000120a:	d4f70d23          	sb	a5,-678(a4) # 80080f60 <OSRdyGrp>
    8000120e:	cae0                	sw	s0,84(a3)
    80001210:	4fb030ef          	jal	ra,80004f0a <OS_CPU_SR_Restore>
    80001214:	6402                	ld	s0,0(sp)
    80001216:	60a2                	ld	ra,8(sp)
    80001218:	0141                	addi	sp,sp,16
    8000121a:	951ff06f          	j	80000b6a <OS_Sched>

000000008000121e <OSStatInit>:
    8000121e:	1141                	addi	sp,sp,-16
    80001220:	e022                	sd	s0,0(sp)
    80001222:	e406                	sd	ra,8(sp)
    80001224:	00080417          	auipc	s0,0x80
    80001228:	15440413          	addi	s0,s0,340 # 80081378 <OSIntNesting>
    8000122c:	00044783          	lbu	a5,0(s0)
    80001230:	e791                	bnez	a5,8000123c <OSStatInit+0x1e>
    80001232:	0007f797          	auipc	a5,0x7f
    80001236:	2167c783          	lbu	a5,534(a5) # 80080448 <OSLockNesting>
    8000123a:	cbb1                	beqz	a5,8000128e <OSStatInit+0x70>
    8000123c:	4c5030ef          	jal	ra,80004f00 <OS_CPU_SR_Save>
    80001240:	0007f797          	auipc	a5,0x7f
    80001244:	2007ae23          	sw	zero,540(a5) # 8008045c <OSIdleCtr>
    80001248:	4c3030ef          	jal	ra,80004f0a <OS_CPU_SR_Restore>
    8000124c:	00044783          	lbu	a5,0(s0)
    80001250:	e791                	bnez	a5,8000125c <OSStatInit+0x3e>
    80001252:	0007f797          	auipc	a5,0x7f
    80001256:	1f67c783          	lbu	a5,502(a5) # 80080448 <OSLockNesting>
    8000125a:	c795                	beqz	a5,80001286 <OSStatInit+0x68>
    8000125c:	4a5030ef          	jal	ra,80004f00 <OS_CPU_SR_Save>
    80001260:	0007f797          	auipc	a5,0x7f
    80001264:	1fc78793          	addi	a5,a5,508 # 8008045c <OSIdleCtr>
    80001268:	439c                	lw	a5,0(a5)
    8000126a:	6402                	ld	s0,0(sp)
    8000126c:	4705                	li	a4,1
    8000126e:	60a2                	ld	ra,8(sp)
    80001270:	00081697          	auipc	a3,0x81
    80001274:	32e68023          	sb	a4,800(a3) # 80082590 <OSStatRdy>
    80001278:	00080717          	auipc	a4,0x80
    8000127c:	bef72c23          	sw	a5,-1032(a4) # 80080e70 <OSIdleCtrMax>
    80001280:	0141                	addi	sp,sp,16
    80001282:	4890306f          	j	80004f0a <OS_CPU_SR_Restore>
    80001286:	4529                	li	a0,10
    80001288:	f35ff0ef          	jal	ra,800011bc <OSTimeDly.part.9>
    8000128c:	bfc1                	j	8000125c <OSStatInit+0x3e>
    8000128e:	4509                	li	a0,2
    80001290:	f2dff0ef          	jal	ra,800011bc <OSTimeDly.part.9>
    80001294:	b765                	j	8000123c <OSStatInit+0x1e>

0000000080001296 <OS_StrLen>:
    80001296:	00054783          	lbu	a5,0(a0)
    8000129a:	cb89                	beqz	a5,800012ac <OS_StrLen+0x16>
    8000129c:	4781                	li	a5,0
    8000129e:	0505                	addi	a0,a0,1
    800012a0:	00054703          	lbu	a4,0(a0)
    800012a4:	2785                	addiw	a5,a5,1
    800012a6:	0ff7f793          	andi	a5,a5,255
    800012aa:	fb75                	bnez	a4,8000129e <OS_StrLen+0x8>
    800012ac:	853e                	mv	a0,a5
    800012ae:	8082                	ret

00000000800012b0 <OS_TCBInit>:
    800012b0:	715d                	addi	sp,sp,-80
    800012b2:	e0a2                	sd	s0,64(sp)
    800012b4:	fc26                	sd	s1,56(sp)
    800012b6:	f84a                	sd	s2,48(sp)
    800012b8:	f44e                	sd	s3,40(sp)
    800012ba:	f052                	sd	s4,32(sp)
    800012bc:	ec56                	sd	s5,24(sp)
    800012be:	e85a                	sd	s6,16(sp)
    800012c0:	e45e                	sd	s7,8(sp)
    800012c2:	8b3e                	mv	s6,a5
    800012c4:	e486                	sd	ra,72(sp)
    800012c6:	84aa                	mv	s1,a0
    800012c8:	8bae                	mv	s7,a1
    800012ca:	8a32                	mv	s4,a2
    800012cc:	8936                	mv	s2,a3
    800012ce:	8aba                	mv	s5,a4
    800012d0:	89c2                	mv	s3,a6
    800012d2:	42f030ef          	jal	ra,80004f00 <OS_CPU_SR_Save>
    800012d6:	00080797          	auipc	a5,0x80
    800012da:	ba278793          	addi	a5,a5,-1118 # 80080e78 <OSTCBFreeList>
    800012de:	6380                	ld	s0,0(a5)
    800012e0:	e005                	bnez	s0,80001300 <OS_TCBInit+0x50>
    800012e2:	429030ef          	jal	ra,80004f0a <OS_CPU_SR_Restore>
    800012e6:	04200513          	li	a0,66
    800012ea:	60a6                	ld	ra,72(sp)
    800012ec:	6406                	ld	s0,64(sp)
    800012ee:	74e2                	ld	s1,56(sp)
    800012f0:	7942                	ld	s2,48(sp)
    800012f2:	79a2                	ld	s3,40(sp)
    800012f4:	7a02                	ld	s4,32(sp)
    800012f6:	6ae2                	ld	s5,24(sp)
    800012f8:	6b42                	ld	s6,16(sp)
    800012fa:	6ba2                	ld	s7,8(sp)
    800012fc:	6161                	addi	sp,sp,80
    800012fe:	8082                	ret
    80001300:	701c                	ld	a5,32(s0)
    80001302:	00080717          	auipc	a4,0x80
    80001306:	b6f73b23          	sd	a5,-1162(a4) # 80080e78 <OSTCBFreeList>
    8000130a:	401030ef          	jal	ra,80004f0a <OS_CPU_SR_Restore>
    8000130e:	0074f713          	andi	a4,s1,7
    80001312:	0034d693          	srli	a3,s1,0x3
    80001316:	4785                	li	a5,1
    80001318:	00d79633          	sll	a2,a5,a3
    8000131c:	00e797b3          	sll	a5,a5,a4
    80001320:	04f40ea3          	sb	a5,93(s0)
    80001324:	0007f797          	auipc	a5,0x7f
    80001328:	f3c78793          	addi	a5,a5,-196 # 80080260 <OSUnMapTbl+0x260>
    8000132c:	04e40da3          	sb	a4,91(s0)
    80001330:	e05c                	sd	a5,128(s0)
    80001332:	04d40e23          	sb	a3,92(s0)
    80001336:	04c40f23          	sb	a2,94(s0)
    8000133a:	04940d23          	sb	s1,90(s0)
    8000133e:	8522                	mv	a0,s0
    80001340:	01743023          	sd	s7,0(s0)
    80001344:	04042a23          	sw	zero,84(s0)
    80001348:	04041c23          	sh	zero,88(s0)
    8000134c:	01643423          	sd	s6,8(s0)
    80001350:	01542c23          	sw	s5,24(s0)
    80001354:	01443823          	sd	s4,16(s0)
    80001358:	01341e23          	sh	s3,28(s0)
    8000135c:	01241f23          	sh	s2,30(s0)
    80001360:	04040fa3          	sb	zero,95(s0)
    80001364:	02043823          	sd	zero,48(s0)
    80001368:	02043c23          	sd	zero,56(s0)
    8000136c:	04043423          	sd	zero,72(s0)
    80001370:	04043023          	sd	zero,64(s0)
    80001374:	06042023          	sw	zero,96(s0)
    80001378:	06042423          	sw	zero,104(s0)
    8000137c:	06042223          	sw	zero,100(s0)
    80001380:	06043823          	sd	zero,112(s0)
    80001384:	06042c23          	sw	zero,120(s0)
    80001388:	08042423          	sw	zero,136(s0)
    8000138c:	51b030ef          	jal	ra,800050a6 <OSTCBInitHook>
    80001390:	8522                	mv	a0,s0
    80001392:	50b030ef          	jal	ra,8000509c <OSTaskCreateHook>
    80001396:	36b030ef          	jal	ra,80004f00 <OS_CPU_SR_Save>
    8000139a:	0007f797          	auipc	a5,0x7f
    8000139e:	5f678793          	addi	a5,a5,1526 # 80080990 <OSTCBList>
    800013a2:	6398                	ld	a4,0(a5)
    800013a4:	048e                	slli	s1,s1,0x3
    800013a6:	00081797          	auipc	a5,0x81
    800013aa:	1f278793          	addi	a5,a5,498 # 80082598 <OSTCBPrioTbl>
    800013ae:	94be                	add	s1,s1,a5
    800013b0:	e080                	sd	s0,0(s1)
    800013b2:	f018                	sd	a4,32(s0)
    800013b4:	02043423          	sd	zero,40(s0)
    800013b8:	c311                	beqz	a4,800013bc <OS_TCBInit+0x10c>
    800013ba:	f700                	sd	s0,40(a4)
    800013bc:	05c44703          	lbu	a4,92(s0)
    800013c0:	00080797          	auipc	a5,0x80
    800013c4:	ba878793          	addi	a5,a5,-1112 # 80080f68 <OSRdyTbl>
    800013c8:	05d44583          	lbu	a1,93(s0)
    800013cc:	97ba                	add	a5,a5,a4
    800013ce:	0007c683          	lbu	a3,0(a5)
    800013d2:	05e44603          	lbu	a2,94(s0)
    800013d6:	00080817          	auipc	a6,0x80
    800013da:	b8a84803          	lbu	a6,-1142(a6) # 80080f60 <OSRdyGrp>
    800013de:	00080717          	auipc	a4,0x80
    800013e2:	aa374703          	lbu	a4,-1373(a4) # 80080e81 <OSTaskCtr>
    800013e6:	8ecd                	or	a3,a3,a1
    800013e8:	01066633          	or	a2,a2,a6
    800013ec:	2705                	addiw	a4,a4,1
    800013ee:	00d78023          	sb	a3,0(a5)
    800013f2:	0007f597          	auipc	a1,0x7f
    800013f6:	5885bf23          	sd	s0,1438(a1) # 80080990 <OSTCBList>
    800013fa:	00080597          	auipc	a1,0x80
    800013fe:	b6c58323          	sb	a2,-1178(a1) # 80080f60 <OSRdyGrp>
    80001402:	00080797          	auipc	a5,0x80
    80001406:	a6e78fa3          	sb	a4,-1409(a5) # 80080e81 <OSTaskCtr>
    8000140a:	301030ef          	jal	ra,80004f0a <OS_CPU_SR_Restore>
    8000140e:	4501                	li	a0,0
    80001410:	bde9                	j	800012ea <OS_TCBInit+0x3a>

0000000080001412 <OSFlagAccept>:
    80001412:	7139                	addi	sp,sp,-64
    80001414:	f04a                	sd	s2,32(sp)
    80001416:	fc06                	sd	ra,56(sp)
    80001418:	f822                	sd	s0,48(sp)
    8000141a:	f426                	sd	s1,40(sp)
    8000141c:	ec4e                	sd	s3,24(sp)
    8000141e:	00054703          	lbu	a4,0(a0)
    80001422:	4795                	li	a5,5
    80001424:	8936                	mv	s2,a3
    80001426:	00f70e63          	beq	a4,a5,80001442 <OSFlagAccept+0x30>
    8000142a:	4785                	li	a5,1
    8000142c:	00f68023          	sb	a5,0(a3)
    80001430:	4401                	li	s0,0
    80001432:	8522                	mv	a0,s0
    80001434:	70e2                	ld	ra,56(sp)
    80001436:	7442                	ld	s0,48(sp)
    80001438:	74a2                	ld	s1,40(sp)
    8000143a:	7902                	ld	s2,32(sp)
    8000143c:	69e2                	ld	s3,24(sp)
    8000143e:	6121                	addi	sp,sp,64
    80001440:	8082                	ret
    80001442:	0186179b          	slliw	a5,a2,0x18
    80001446:	4187d79b          	sraiw	a5,a5,0x18
    8000144a:	84aa                	mv	s1,a0
    8000144c:	4981                	li	s3,0
    8000144e:	0007d563          	bgez	a5,80001458 <OSFlagAccept+0x46>
    80001452:	07f67613          	andi	a2,a2,127
    80001456:	4985                	li	s3,1
    80001458:	00090023          	sb	zero,0(s2)
    8000145c:	e432                	sd	a2,8(sp)
    8000145e:	e02e                	sd	a1,0(sp)
    80001460:	2a1030ef          	jal	ra,80004f00 <OS_CPU_SR_Save>
    80001464:	6622                	ld	a2,8(sp)
    80001466:	4785                	li	a5,1
    80001468:	872a                	mv	a4,a0
    8000146a:	6582                	ld	a1,0(sp)
    8000146c:	08f60063          	beq	a2,a5,800014ec <OSFlagAccept+0xda>
    80001470:	c22d                	beqz	a2,800014d2 <OSFlagAccept+0xc0>
    80001472:	4689                	li	a3,2
    80001474:	02d60963          	beq	a2,a3,800014a6 <OSFlagAccept+0x94>
    80001478:	468d                	li	a3,3
    8000147a:	04d61463          	bne	a2,a3,800014c2 <OSFlagAccept+0xb0>
    8000147e:	0104d683          	lhu	a3,16(s1)
    80001482:	00b6f433          	and	s0,a3,a1
    80001486:	e415                	bnez	s0,800014b2 <OSFlagAccept+0xa0>
    80001488:	07000793          	li	a5,112
    8000148c:	00f90023          	sb	a5,0(s2)
    80001490:	853a                	mv	a0,a4
    80001492:	279030ef          	jal	ra,80004f0a <OS_CPU_SR_Restore>
    80001496:	8522                	mv	a0,s0
    80001498:	70e2                	ld	ra,56(sp)
    8000149a:	7442                	ld	s0,48(sp)
    8000149c:	74a2                	ld	s1,40(sp)
    8000149e:	7902                	ld	s2,32(sp)
    800014a0:	69e2                	ld	s3,24(sp)
    800014a2:	6121                	addi	sp,sp,64
    800014a4:	8082                	ret
    800014a6:	0104d683          	lhu	a3,16(s1)
    800014aa:	00b6f433          	and	s0,a3,a1
    800014ae:	fc859de3          	bne	a1,s0,80001488 <OSFlagAccept+0x76>
    800014b2:	fcf99fe3          	bne	s3,a5,80001490 <OSFlagAccept+0x7e>
    800014b6:	fff44793          	not	a5,s0
    800014ba:	8efd                	and	a3,a3,a5
    800014bc:	00d49823          	sh	a3,16(s1)
    800014c0:	bfc1                	j	80001490 <OSFlagAccept+0x7e>
    800014c2:	249030ef          	jal	ra,80004f0a <OS_CPU_SR_Restore>
    800014c6:	06f00793          	li	a5,111
    800014ca:	00f90023          	sb	a5,0(s2)
    800014ce:	4401                	li	s0,0
    800014d0:	b78d                	j	80001432 <OSFlagAccept+0x20>
    800014d2:	0104d683          	lhu	a3,16(s1)
    800014d6:	fff6c413          	not	s0,a3
    800014da:	8c6d                	and	s0,s0,a1
    800014dc:	fa8596e3          	bne	a1,s0,80001488 <OSFlagAccept+0x76>
    800014e0:	faf998e3          	bne	s3,a5,80001490 <OSFlagAccept+0x7e>
    800014e4:	8ecd                	or	a3,a3,a1
    800014e6:	00d49823          	sh	a3,16(s1)
    800014ea:	b75d                	j	80001490 <OSFlagAccept+0x7e>
    800014ec:	0104d783          	lhu	a5,16(s1)
    800014f0:	fff7c413          	not	s0,a5
    800014f4:	8c6d                	and	s0,s0,a1
    800014f6:	d849                	beqz	s0,80001488 <OSFlagAccept+0x76>
    800014f8:	f8c99ce3          	bne	s3,a2,80001490 <OSFlagAccept+0x7e>
    800014fc:	8fcd                	or	a5,a5,a1
    800014fe:	00f49823          	sh	a5,16(s1)
    80001502:	b779                	j	80001490 <OSFlagAccept+0x7e>

0000000080001504 <OSFlagCreate>:
    80001504:	1101                	addi	sp,sp,-32
    80001506:	ec06                	sd	ra,24(sp)
    80001508:	e822                	sd	s0,16(sp)
    8000150a:	e426                	sd	s1,8(sp)
    8000150c:	e04a                	sd	s2,0(sp)
    8000150e:	00080797          	auipc	a5,0x80
    80001512:	e6a7c783          	lbu	a5,-406(a5) # 80081378 <OSIntNesting>
    80001516:	e7a5                	bnez	a5,8000157e <OSFlagCreate+0x7a>
    80001518:	84ae                	mv	s1,a1
    8000151a:	892a                	mv	s2,a0
    8000151c:	1e5030ef          	jal	ra,80004f00 <OS_CPU_SR_Save>
    80001520:	00081797          	auipc	a5,0x81
    80001524:	06878793          	addi	a5,a5,104 # 80082588 <OSFlagFreeList>
    80001528:	6380                	ld	s0,0(a5)
    8000152a:	cc0d                	beqz	s0,80001564 <OSFlagCreate+0x60>
    8000152c:	641c                	ld	a5,8(s0)
    8000152e:	01241823          	sh	s2,16(s0)
    80001532:	00043423          	sd	zero,8(s0)
    80001536:	00081717          	auipc	a4,0x81
    8000153a:	04f73923          	sd	a5,82(a4) # 80082588 <OSFlagFreeList>
    8000153e:	4795                	li	a5,5
    80001540:	00f40023          	sb	a5,0(s0)
    80001544:	0007f797          	auipc	a5,0x7f
    80001548:	d1c78793          	addi	a5,a5,-740 # 80080260 <OSUnMapTbl+0x260>
    8000154c:	ec1c                	sd	a5,24(s0)
    8000154e:	1bd030ef          	jal	ra,80004f0a <OS_CPU_SR_Restore>
    80001552:	00048023          	sb	zero,0(s1)
    80001556:	8522                	mv	a0,s0
    80001558:	60e2                	ld	ra,24(sp)
    8000155a:	6442                	ld	s0,16(sp)
    8000155c:	64a2                	ld	s1,8(sp)
    8000155e:	6902                	ld	s2,0(sp)
    80001560:	6105                	addi	sp,sp,32
    80001562:	8082                	ret
    80001564:	1a7030ef          	jal	ra,80004f0a <OS_CPU_SR_Restore>
    80001568:	07200793          	li	a5,114
    8000156c:	00f48023          	sb	a5,0(s1)
    80001570:	8522                	mv	a0,s0
    80001572:	60e2                	ld	ra,24(sp)
    80001574:	6442                	ld	s0,16(sp)
    80001576:	64a2                	ld	s1,8(sp)
    80001578:	6902                	ld	s2,0(sp)
    8000157a:	6105                	addi	sp,sp,32
    8000157c:	8082                	ret
    8000157e:	4401                	li	s0,0
    80001580:	8522                	mv	a0,s0
    80001582:	60e2                	ld	ra,24(sp)
    80001584:	6442                	ld	s0,16(sp)
    80001586:	47c1                	li	a5,16
    80001588:	00f58023          	sb	a5,0(a1)
    8000158c:	64a2                	ld	s1,8(sp)
    8000158e:	6902                	ld	s2,0(sp)
    80001590:	6105                	addi	sp,sp,32
    80001592:	8082                	ret

0000000080001594 <OSFlagDel>:
    80001594:	00080797          	auipc	a5,0x80
    80001598:	de47c783          	lbu	a5,-540(a5) # 80081378 <OSIntNesting>
    8000159c:	eb91                	bnez	a5,800015b0 <OSFlagDel+0x1c>
    8000159e:	00054703          	lbu	a4,0(a0)
    800015a2:	4795                	li	a5,5
    800015a4:	00f70a63          	beq	a4,a5,800015b8 <OSFlagDel+0x24>
    800015a8:	4785                	li	a5,1
    800015aa:	00f60023          	sb	a5,0(a2)
    800015ae:	8082                	ret
    800015b0:	47bd                	li	a5,15
    800015b2:	00f60023          	sb	a5,0(a2)
    800015b6:	8082                	ret
    800015b8:	7179                	addi	sp,sp,-48
    800015ba:	f022                	sd	s0,32(sp)
    800015bc:	842a                	mv	s0,a0
    800015be:	ec26                	sd	s1,24(sp)
    800015c0:	e84a                	sd	s2,16(sp)
    800015c2:	e44e                	sd	s3,8(sp)
    800015c4:	e052                	sd	s4,0(sp)
    800015c6:	f406                	sd	ra,40(sp)
    800015c8:	84b2                	mv	s1,a2
    800015ca:	892e                	mv	s2,a1
    800015cc:	135030ef          	jal	ra,80004f00 <OS_CPU_SR_Save>
    800015d0:	00843983          	ld	s3,8(s0)
    800015d4:	8a2a                	mv	s4,a0
    800015d6:	08098263          	beqz	s3,8000165a <OSFlagDel+0xc6>
    800015da:	06090863          	beqz	s2,8000164a <OSFlagDel+0xb6>
    800015de:	4785                	li	a5,1
    800015e0:	02f90163          	beq	s2,a5,80001602 <OSFlagDel+0x6e>
    800015e4:	8552                	mv	a0,s4
    800015e6:	125030ef          	jal	ra,80004f0a <OS_CPU_SR_Restore>
    800015ea:	479d                	li	a5,7
    800015ec:	00f48023          	sb	a5,0(s1)
    800015f0:	8522                	mv	a0,s0
    800015f2:	70a2                	ld	ra,40(sp)
    800015f4:	7402                	ld	s0,32(sp)
    800015f6:	64e2                	ld	s1,24(sp)
    800015f8:	6942                	ld	s2,16(sp)
    800015fa:	69a2                	ld	s3,8(sp)
    800015fc:	6a02                	ld	s4,0(sp)
    800015fe:	6145                	addi	sp,sp,48
    80001600:	8082                	ret
    80001602:	854e                	mv	a0,s3
    80001604:	4581                	li	a1,0
    80001606:	cb5fe0ef          	jal	ra,800002ba <OS_FlagTaskRdy>
    8000160a:	0009b983          	ld	s3,0(s3)
    8000160e:	fe099ae3          	bnez	s3,80001602 <OSFlagDel+0x6e>
    80001612:	00040023          	sb	zero,0(s0)
    80001616:	00081797          	auipc	a5,0x81
    8000161a:	f7278793          	addi	a5,a5,-142 # 80082588 <OSFlagFreeList>
    8000161e:	639c                	ld	a5,0(a5)
    80001620:	0007f717          	auipc	a4,0x7f
    80001624:	c4070713          	addi	a4,a4,-960 # 80080260 <OSUnMapTbl+0x260>
    80001628:	8552                	mv	a0,s4
    8000162a:	e41c                	sd	a5,8(s0)
    8000162c:	ec18                	sd	a4,24(s0)
    8000162e:	00041823          	sh	zero,16(s0)
    80001632:	00081797          	auipc	a5,0x81
    80001636:	f487bb23          	sd	s0,-170(a5) # 80082588 <OSFlagFreeList>
    8000163a:	0d1030ef          	jal	ra,80004f0a <OS_CPU_SR_Restore>
    8000163e:	d2cff0ef          	jal	ra,80000b6a <OS_Sched>
    80001642:	00048023          	sb	zero,0(s1)
    80001646:	4501                	li	a0,0
    80001648:	b76d                	j	800015f2 <OSFlagDel+0x5e>
    8000164a:	0c1030ef          	jal	ra,80004f0a <OS_CPU_SR_Restore>
    8000164e:	04900793          	li	a5,73
    80001652:	00f48023          	sb	a5,0(s1)
    80001656:	8522                	mv	a0,s0
    80001658:	bf69                	j	800015f2 <OSFlagDel+0x5e>
    8000165a:	02090b63          	beqz	s2,80001690 <OSFlagDel+0xfc>
    8000165e:	4785                	li	a5,1
    80001660:	f8f912e3          	bne	s2,a5,800015e4 <OSFlagDel+0x50>
    80001664:	00040023          	sb	zero,0(s0)
    80001668:	00081797          	auipc	a5,0x81
    8000166c:	f2078793          	addi	a5,a5,-224 # 80082588 <OSFlagFreeList>
    80001670:	639c                	ld	a5,0(a5)
    80001672:	0007f717          	auipc	a4,0x7f
    80001676:	bee70713          	addi	a4,a4,-1042 # 80080260 <OSUnMapTbl+0x260>
    8000167a:	ec18                	sd	a4,24(s0)
    8000167c:	e41c                	sd	a5,8(s0)
    8000167e:	00041823          	sh	zero,16(s0)
    80001682:	00081797          	auipc	a5,0x81
    80001686:	f087b323          	sd	s0,-250(a5) # 80082588 <OSFlagFreeList>
    8000168a:	081030ef          	jal	ra,80004f0a <OS_CPU_SR_Restore>
    8000168e:	bf55                	j	80001642 <OSFlagDel+0xae>
    80001690:	00040023          	sb	zero,0(s0)
    80001694:	00081797          	auipc	a5,0x81
    80001698:	ef478793          	addi	a5,a5,-268 # 80082588 <OSFlagFreeList>
    8000169c:	639c                	ld	a5,0(a5)
    8000169e:	0007f717          	auipc	a4,0x7f
    800016a2:	bc270713          	addi	a4,a4,-1086 # 80080260 <OSUnMapTbl+0x260>
    800016a6:	ec18                	sd	a4,24(s0)
    800016a8:	e41c                	sd	a5,8(s0)
    800016aa:	00041823          	sh	zero,16(s0)
    800016ae:	00081797          	auipc	a5,0x81
    800016b2:	ec87bd23          	sd	s0,-294(a5) # 80082588 <OSFlagFreeList>
    800016b6:	055030ef          	jal	ra,80004f0a <OS_CPU_SR_Restore>
    800016ba:	4501                	li	a0,0
    800016bc:	00048023          	sb	zero,0(s1)
    800016c0:	bf0d                	j	800015f2 <OSFlagDel+0x5e>

00000000800016c2 <OSFlagNameGet>:
    800016c2:	7179                	addi	sp,sp,-48
    800016c4:	f022                	sd	s0,32(sp)
    800016c6:	f406                	sd	ra,40(sp)
    800016c8:	ec26                	sd	s1,24(sp)
    800016ca:	e84a                	sd	s2,16(sp)
    800016cc:	e44e                	sd	s3,8(sp)
    800016ce:	00080417          	auipc	s0,0x80
    800016d2:	caa44403          	lbu	s0,-854(s0) # 80081378 <OSIntNesting>
    800016d6:	cc09                	beqz	s0,800016f0 <OSFlagNameGet+0x2e>
    800016d8:	4401                	li	s0,0
    800016da:	8522                	mv	a0,s0
    800016dc:	70a2                	ld	ra,40(sp)
    800016de:	7402                	ld	s0,32(sp)
    800016e0:	47c5                	li	a5,17
    800016e2:	00f60023          	sb	a5,0(a2)
    800016e6:	64e2                	ld	s1,24(sp)
    800016e8:	6942                	ld	s2,16(sp)
    800016ea:	69a2                	ld	s3,8(sp)
    800016ec:	6145                	addi	sp,sp,48
    800016ee:	8082                	ret
    800016f0:	84aa                	mv	s1,a0
    800016f2:	8932                	mv	s2,a2
    800016f4:	89ae                	mv	s3,a1
    800016f6:	00b030ef          	jal	ra,80004f00 <OS_CPU_SR_Save>
    800016fa:	0004c703          	lbu	a4,0(s1)
    800016fe:	4795                	li	a5,5
    80001700:	86aa                	mv	a3,a0
    80001702:	02f71c63          	bne	a4,a5,8000173a <OSFlagNameGet+0x78>
    80001706:	6c9c                	ld	a5,24(s1)
    80001708:	00f9b023          	sd	a5,0(s3)
    8000170c:	0007c703          	lbu	a4,0(a5)
    80001710:	cb01                	beqz	a4,80001720 <OSFlagNameGet+0x5e>
    80001712:	0785                	addi	a5,a5,1
    80001714:	0007c703          	lbu	a4,0(a5)
    80001718:	2405                	addiw	s0,s0,1
    8000171a:	0ff47413          	andi	s0,s0,255
    8000171e:	fb75                	bnez	a4,80001712 <OSFlagNameGet+0x50>
    80001720:	8536                	mv	a0,a3
    80001722:	7e8030ef          	jal	ra,80004f0a <OS_CPU_SR_Restore>
    80001726:	00090023          	sb	zero,0(s2)
    8000172a:	8522                	mv	a0,s0
    8000172c:	70a2                	ld	ra,40(sp)
    8000172e:	7402                	ld	s0,32(sp)
    80001730:	64e2                	ld	s1,24(sp)
    80001732:	6942                	ld	s2,16(sp)
    80001734:	69a2                	ld	s3,8(sp)
    80001736:	6145                	addi	sp,sp,48
    80001738:	8082                	ret
    8000173a:	7d0030ef          	jal	ra,80004f0a <OS_CPU_SR_Restore>
    8000173e:	4785                	li	a5,1
    80001740:	00f90023          	sb	a5,0(s2)
    80001744:	8522                	mv	a0,s0
    80001746:	70a2                	ld	ra,40(sp)
    80001748:	7402                	ld	s0,32(sp)
    8000174a:	64e2                	ld	s1,24(sp)
    8000174c:	6942                	ld	s2,16(sp)
    8000174e:	69a2                	ld	s3,8(sp)
    80001750:	6145                	addi	sp,sp,48
    80001752:	8082                	ret

0000000080001754 <OSFlagNameSet>:
    80001754:	00080797          	auipc	a5,0x80
    80001758:	c247c783          	lbu	a5,-988(a5) # 80081378 <OSIntNesting>
    8000175c:	c789                	beqz	a5,80001766 <OSFlagNameSet+0x12>
    8000175e:	47c9                	li	a5,18
    80001760:	00f60023          	sb	a5,0(a2)
    80001764:	8082                	ret
    80001766:	1101                	addi	sp,sp,-32
    80001768:	e822                	sd	s0,16(sp)
    8000176a:	e426                	sd	s1,8(sp)
    8000176c:	e04a                	sd	s2,0(sp)
    8000176e:	84aa                	mv	s1,a0
    80001770:	ec06                	sd	ra,24(sp)
    80001772:	8432                	mv	s0,a2
    80001774:	892e                	mv	s2,a1
    80001776:	78a030ef          	jal	ra,80004f00 <OS_CPU_SR_Save>
    8000177a:	0004c703          	lbu	a4,0(s1)
    8000177e:	4795                	li	a5,5
    80001780:	00f70d63          	beq	a4,a5,8000179a <OSFlagNameSet+0x46>
    80001784:	786030ef          	jal	ra,80004f0a <OS_CPU_SR_Restore>
    80001788:	4785                	li	a5,1
    8000178a:	00f40023          	sb	a5,0(s0)
    8000178e:	60e2                	ld	ra,24(sp)
    80001790:	6442                	ld	s0,16(sp)
    80001792:	64a2                	ld	s1,8(sp)
    80001794:	6902                	ld	s2,0(sp)
    80001796:	6105                	addi	sp,sp,32
    80001798:	8082                	ret
    8000179a:	0124bc23          	sd	s2,24(s1)
    8000179e:	76c030ef          	jal	ra,80004f0a <OS_CPU_SR_Restore>
    800017a2:	00040023          	sb	zero,0(s0)
    800017a6:	60e2                	ld	ra,24(sp)
    800017a8:	6442                	ld	s0,16(sp)
    800017aa:	64a2                	ld	s1,8(sp)
    800017ac:	6902                	ld	s2,0(sp)
    800017ae:	6105                	addi	sp,sp,32
    800017b0:	8082                	ret

00000000800017b2 <OSFlagPend>:
    800017b2:	7119                	addi	sp,sp,-128
    800017b4:	f4a6                	sd	s1,104(sp)
    800017b6:	fc86                	sd	ra,120(sp)
    800017b8:	f8a2                	sd	s0,112(sp)
    800017ba:	f0ca                	sd	s2,96(sp)
    800017bc:	ecce                	sd	s3,88(sp)
    800017be:	e8d2                	sd	s4,80(sp)
    800017c0:	e4d6                	sd	s5,72(sp)
    800017c2:	00080797          	auipc	a5,0x80
    800017c6:	bb67c783          	lbu	a5,-1098(a5) # 80081378 <OSIntNesting>
    800017ca:	84ba                	mv	s1,a4
    800017cc:	ef9d                	bnez	a5,8000180a <OSFlagPend+0x58>
    800017ce:	0007f797          	auipc	a5,0x7f
    800017d2:	c7a7c783          	lbu	a5,-902(a5) # 80080448 <OSLockNesting>
    800017d6:	ef81                	bnez	a5,800017ee <OSFlagPend+0x3c>
    800017d8:	00054703          	lbu	a4,0(a0)
    800017dc:	4795                	li	a5,5
    800017de:	89aa                	mv	s3,a0
    800017e0:	02f70a63          	beq	a4,a5,80001814 <OSFlagPend+0x62>
    800017e4:	4785                	li	a5,1
    800017e6:	00f48023          	sb	a5,0(s1)
    800017ea:	4401                	li	s0,0
    800017ec:	a029                	j	800017f6 <OSFlagPend+0x44>
    800017ee:	47b5                	li	a5,13
    800017f0:	00f70023          	sb	a5,0(a4)
    800017f4:	4401                	li	s0,0
    800017f6:	8522                	mv	a0,s0
    800017f8:	70e6                	ld	ra,120(sp)
    800017fa:	7446                	ld	s0,112(sp)
    800017fc:	74a6                	ld	s1,104(sp)
    800017fe:	7906                	ld	s2,96(sp)
    80001800:	69e6                	ld	s3,88(sp)
    80001802:	6a46                	ld	s4,80(sp)
    80001804:	6aa6                	ld	s5,72(sp)
    80001806:	6109                	addi	sp,sp,128
    80001808:	8082                	ret
    8000180a:	4789                	li	a5,2
    8000180c:	00f70023          	sb	a5,0(a4)
    80001810:	4401                	li	s0,0
    80001812:	b7d5                	j	800017f6 <OSFlagPend+0x44>
    80001814:	0186179b          	slliw	a5,a2,0x18
    80001818:	4187d79b          	sraiw	a5,a5,0x18
    8000181c:	8932                	mv	s2,a2
    8000181e:	4a01                	li	s4,0
    80001820:	0007d563          	bgez	a5,8000182a <OSFlagPend+0x78>
    80001824:	07f67913          	andi	s2,a2,127
    80001828:	4a05                	li	s4,1
    8000182a:	e436                	sd	a3,8(sp)
    8000182c:	e02e                	sd	a1,0(sp)
    8000182e:	6d2030ef          	jal	ra,80004f00 <OS_CPU_SR_Save>
    80001832:	4785                	li	a5,1
    80001834:	8aaa                	mv	s5,a0
    80001836:	6582                	ld	a1,0(sp)
    80001838:	66a2                	ld	a3,8(sp)
    8000183a:	0af90263          	beq	s2,a5,800018de <OSFlagPend+0x12c>
    8000183e:	08090563          	beqz	s2,800018c8 <OSFlagPend+0x116>
    80001842:	4709                	li	a4,2
    80001844:	02e90f63          	beq	s2,a4,80001882 <OSFlagPend+0xd0>
    80001848:	470d                	li	a4,3
    8000184a:	06e91763          	bne	s2,a4,800018b8 <OSFlagPend+0x106>
    8000184e:	0109d703          	lhu	a4,16(s3)
    80001852:	00b77433          	and	s0,a4,a1
    80001856:	12040e63          	beqz	s0,80001992 <OSFlagPend+0x1e0>
    8000185a:	00fa1763          	bne	s4,a5,80001868 <OSFlagPend+0xb6>
    8000185e:	fff44793          	not	a5,s0
    80001862:	8f7d                	and	a4,a4,a5
    80001864:	00e99823          	sh	a4,16(s3)
    80001868:	00080797          	auipc	a5,0x80
    8000186c:	b1878793          	addi	a5,a5,-1256 # 80081380 <OSTCBCur>
    80001870:	639c                	ld	a5,0(a5)
    80001872:	8556                	mv	a0,s5
    80001874:	04879823          	sh	s0,80(a5)
    80001878:	692030ef          	jal	ra,80004f0a <OS_CPU_SR_Restore>
    8000187c:	00048023          	sb	zero,0(s1)
    80001880:	bf9d                	j	800017f6 <OSFlagPend+0x44>
    80001882:	0109d703          	lhu	a4,16(s3)
    80001886:	00b77633          	and	a2,a4,a1
    8000188a:	0ec59c63          	bne	a1,a2,80001982 <OSFlagPend+0x1d0>
    8000188e:	00fa1763          	bne	s4,a5,8000189c <OSFlagPend+0xea>
    80001892:	fff5c793          	not	a5,a1
    80001896:	8f7d                	and	a4,a4,a5
    80001898:	00e99823          	sh	a4,16(s3)
    8000189c:	00080797          	auipc	a5,0x80
    800018a0:	ae478793          	addi	a5,a5,-1308 # 80081380 <OSTCBCur>
    800018a4:	639c                	ld	a5,0(a5)
    800018a6:	8556                	mv	a0,s5
    800018a8:	842e                	mv	s0,a1
    800018aa:	04b79823          	sh	a1,80(a5)
    800018ae:	65c030ef          	jal	ra,80004f0a <OS_CPU_SR_Restore>
    800018b2:	00048023          	sb	zero,0(s1)
    800018b6:	b781                	j	800017f6 <OSFlagPend+0x44>
    800018b8:	652030ef          	jal	ra,80004f0a <OS_CPU_SR_Restore>
    800018bc:	06f00793          	li	a5,111
    800018c0:	00f48023          	sb	a5,0(s1)
    800018c4:	4401                	li	s0,0
    800018c6:	bf05                	j	800017f6 <OSFlagPend+0x44>
    800018c8:	0109d703          	lhu	a4,16(s3)
    800018cc:	00b77633          	and	a2,a4,a1
    800018d0:	e21d                	bnez	a2,800018f6 <OSFlagPend+0x144>
    800018d2:	fcfa15e3          	bne	s4,a5,8000189c <OSFlagPend+0xea>
    800018d6:	8f4d                	or	a4,a4,a1
    800018d8:	00e99823          	sh	a4,16(s3)
    800018dc:	b7c1                	j	8000189c <OSFlagPend+0xea>
    800018de:	0109d783          	lhu	a5,16(s3)
    800018e2:	fff7c413          	not	s0,a5
    800018e6:	8c6d                	and	s0,s0,a1
    800018e8:	c845                	beqz	s0,80001998 <OSFlagPend+0x1e6>
    800018ea:	f72a1fe3          	bne	s4,s2,80001868 <OSFlagPend+0xb6>
    800018ee:	8fcd                	or	a5,a5,a1
    800018f0:	00f99823          	sh	a5,16(s3)
    800018f4:	bf95                	j	80001868 <OSFlagPend+0xb6>
    800018f6:	8736                	mv	a4,a3
    800018f8:	4681                	li	a3,0
    800018fa:	862e                	mv	a2,a1
    800018fc:	854e                	mv	a0,s3
    800018fe:	082c                	addi	a1,sp,24
    80001900:	93dfe0ef          	jal	ra,8000023c <OS_FlagBlock>
    80001904:	8556                	mv	a0,s5
    80001906:	604030ef          	jal	ra,80004f0a <OS_CPU_SR_Restore>
    8000190a:	a60ff0ef          	jal	ra,80000b6a <OS_Sched>
    8000190e:	5f2030ef          	jal	ra,80004f00 <OS_CPU_SR_Save>
    80001912:	00080717          	auipc	a4,0x80
    80001916:	a6e70713          	addi	a4,a4,-1426 # 80081380 <OSTCBCur>
    8000191a:	631c                	ld	a5,0(a4)
    8000191c:	86aa                	mv	a3,a0
    8000191e:	0597c403          	lbu	s0,89(a5)
    80001922:	c815                	beqz	s0,80001956 <OSFlagPend+0x1a4>
    80001924:	7582                	ld	a1,32(sp)
    80001926:	04078ca3          	sb	zero,89(a5)
    8000192a:	6662                	ld	a2,24(sp)
    8000192c:	c9ad                	beqz	a1,8000199e <OSFlagPend+0x1ec>
    8000192e:	e190                	sd	a2,0(a1)
    80001930:	631c                	ld	a5,0(a4)
    80001932:	c211                	beqz	a2,80001936 <OSFlagPend+0x184>
    80001934:	e60c                	sd	a1,8(a2)
    80001936:	7722                	ld	a4,40(sp)
    80001938:	8536                	mv	a0,a3
    8000193a:	04073423          	sd	zero,72(a4)
    8000193e:	04078c23          	sb	zero,88(a5)
    80001942:	5c8030ef          	jal	ra,80004f0a <OS_CPU_SR_Restore>
    80001946:	4789                	li	a5,2
    80001948:	04f41063          	bne	s0,a5,80001988 <OSFlagPend+0x1d6>
    8000194c:	47b9                	li	a5,14
    8000194e:	00f48023          	sb	a5,0(s1)
    80001952:	4401                	li	s0,0
    80001954:	b54d                	j	800017f6 <OSFlagPend+0x44>
    80001956:	0507d403          	lhu	s0,80(a5)
    8000195a:	000a0e63          	beqz	s4,80001976 <OSFlagPend+0x1c4>
    8000195e:	052a7663          	bleu	s2,s4,800019aa <OSFlagPend+0x1f8>
    80001962:	478d                	li	a5,3
    80001964:	f527eae3          	bltu	a5,s2,800018b8 <OSFlagPend+0x106>
    80001968:	0109d703          	lhu	a4,16(s3)
    8000196c:	fff44793          	not	a5,s0
    80001970:	8ff9                	and	a5,a5,a4
    80001972:	00f99823          	sh	a5,16(s3)
    80001976:	8536                	mv	a0,a3
    80001978:	592030ef          	jal	ra,80004f0a <OS_CPU_SR_Restore>
    8000197c:	00048023          	sb	zero,0(s1)
    80001980:	bd9d                	j	800017f6 <OSFlagPend+0x44>
    80001982:	8736                	mv	a4,a3
    80001984:	4689                	li	a3,2
    80001986:	bf95                	j	800018fa <OSFlagPend+0x148>
    80001988:	47a9                	li	a5,10
    8000198a:	00f48023          	sb	a5,0(s1)
    8000198e:	4401                	li	s0,0
    80001990:	b59d                	j	800017f6 <OSFlagPend+0x44>
    80001992:	8736                	mv	a4,a3
    80001994:	468d                	li	a3,3
    80001996:	b795                	j	800018fa <OSFlagPend+0x148>
    80001998:	8736                	mv	a4,a3
    8000199a:	4685                	li	a3,1
    8000199c:	bfb9                	j	800018fa <OSFlagPend+0x148>
    8000199e:	7742                	ld	a4,48(sp)
    800019a0:	e710                	sd	a2,8(a4)
    800019a2:	da51                	beqz	a2,80001936 <OSFlagPend+0x184>
    800019a4:	00063423          	sd	zero,8(a2)
    800019a8:	b779                	j	80001936 <OSFlagPend+0x184>
    800019aa:	0109d783          	lhu	a5,16(s3)
    800019ae:	8fc1                	or	a5,a5,s0
    800019b0:	00f99823          	sh	a5,16(s3)
    800019b4:	b7c9                	j	80001976 <OSFlagPend+0x1c4>

00000000800019b6 <OSFlagPendGetFlagsRdy>:
    800019b6:	1141                	addi	sp,sp,-16
    800019b8:	e406                	sd	ra,8(sp)
    800019ba:	e022                	sd	s0,0(sp)
    800019bc:	544030ef          	jal	ra,80004f00 <OS_CPU_SR_Save>
    800019c0:	00080797          	auipc	a5,0x80
    800019c4:	9c078793          	addi	a5,a5,-1600 # 80081380 <OSTCBCur>
    800019c8:	639c                	ld	a5,0(a5)
    800019ca:	0507d403          	lhu	s0,80(a5)
    800019ce:	53c030ef          	jal	ra,80004f0a <OS_CPU_SR_Restore>
    800019d2:	60a2                	ld	ra,8(sp)
    800019d4:	8522                	mv	a0,s0
    800019d6:	6402                	ld	s0,0(sp)
    800019d8:	0141                	addi	sp,sp,16
    800019da:	8082                	ret

00000000800019dc <OSFlagPost>:
    800019dc:	715d                	addi	sp,sp,-80
    800019de:	e486                	sd	ra,72(sp)
    800019e0:	e0a2                	sd	s0,64(sp)
    800019e2:	fc26                	sd	s1,56(sp)
    800019e4:	f84a                	sd	s2,48(sp)
    800019e6:	f44e                	sd	s3,40(sp)
    800019e8:	f052                	sd	s4,32(sp)
    800019ea:	ec56                	sd	s5,24(sp)
    800019ec:	e85a                	sd	s6,16(sp)
    800019ee:	e45e                	sd	s7,8(sp)
    800019f0:	00054703          	lbu	a4,0(a0)
    800019f4:	4795                	li	a5,5
    800019f6:	02f70263          	beq	a4,a5,80001a1a <OSFlagPost+0x3e>
    800019fa:	4785                	li	a5,1
    800019fc:	00f68023          	sb	a5,0(a3)
    80001a00:	4401                	li	s0,0
    80001a02:	8522                	mv	a0,s0
    80001a04:	60a6                	ld	ra,72(sp)
    80001a06:	6406                	ld	s0,64(sp)
    80001a08:	74e2                	ld	s1,56(sp)
    80001a0a:	7942                	ld	s2,48(sp)
    80001a0c:	79a2                	ld	s3,40(sp)
    80001a0e:	7a02                	ld	s4,32(sp)
    80001a10:	6ae2                	ld	s5,24(sp)
    80001a12:	6b42                	ld	s6,16(sp)
    80001a14:	6ba2                	ld	s7,8(sp)
    80001a16:	6161                	addi	sp,sp,80
    80001a18:	8082                	ret
    80001a1a:	8936                	mv	s2,a3
    80001a1c:	89b2                	mv	s3,a2
    80001a1e:	842e                	mv	s0,a1
    80001a20:	84aa                	mv	s1,a0
    80001a22:	4de030ef          	jal	ra,80004f00 <OS_CPU_SR_Save>
    80001a26:	8b2a                	mv	s6,a0
    80001a28:	04098f63          	beqz	s3,80001a86 <OSFlagPost+0xaa>
    80001a2c:	4785                	li	a5,1
    80001a2e:	0af99b63          	bne	s3,a5,80001ae4 <OSFlagPost+0x108>
    80001a32:	0104d583          	lhu	a1,16(s1)
    80001a36:	8dc1                	or	a1,a1,s0
    80001a38:	00b49823          	sh	a1,16(s1)
    80001a3c:	6480                	ld	s0,8(s1)
    80001a3e:	c85d                	beqz	s0,80001af4 <OSFlagPost+0x118>
    80001a40:	4a81                	li	s5,0
    80001a42:	4985                	li	s3,1
    80001a44:	4a09                	li	s4,2
    80001a46:	4b8d                	li	s7,3
    80001a48:	02244783          	lbu	a5,34(s0)
    80001a4c:	05378563          	beq	a5,s3,80001a96 <OSFlagPost+0xba>
    80001a50:	c3d9                	beqz	a5,80001ad6 <OSFlagPost+0xfa>
    80001a52:	07478a63          	beq	a5,s4,80001ac6 <OSFlagPost+0xea>
    80001a56:	05779f63          	bne	a5,s7,80001ab4 <OSFlagPost+0xd8>
    80001a5a:	0104d583          	lhu	a1,16(s1)
    80001a5e:	02045783          	lhu	a5,32(s0)
    80001a62:	8dfd                	and	a1,a1,a5
    80001a64:	e1a9                	bnez	a1,80001aa6 <OSFlagPost+0xca>
    80001a66:	6000                	ld	s0,0(s0)
    80001a68:	f065                	bnez	s0,80001a48 <OSFlagPost+0x6c>
    80001a6a:	855a                	mv	a0,s6
    80001a6c:	49e030ef          	jal	ra,80004f0a <OS_CPU_SR_Restore>
    80001a70:	080a9663          	bnez	s5,80001afc <OSFlagPost+0x120>
    80001a74:	48c030ef          	jal	ra,80004f00 <OS_CPU_SR_Save>
    80001a78:	0104d403          	lhu	s0,16(s1)
    80001a7c:	48e030ef          	jal	ra,80004f0a <OS_CPU_SR_Restore>
    80001a80:	00090023          	sb	zero,0(s2)
    80001a84:	bfbd                	j	80001a02 <OSFlagPost+0x26>
    80001a86:	0104d783          	lhu	a5,16(s1)
    80001a8a:	fff44593          	not	a1,s0
    80001a8e:	8dfd                	and	a1,a1,a5
    80001a90:	00b49823          	sh	a1,16(s1)
    80001a94:	b765                	j	80001a3c <OSFlagPost+0x60>
    80001a96:	0104d583          	lhu	a1,16(s1)
    80001a9a:	02045783          	lhu	a5,32(s0)
    80001a9e:	fff5c593          	not	a1,a1
    80001aa2:	8dfd                	and	a1,a1,a5
    80001aa4:	d1e9                	beqz	a1,80001a66 <OSFlagPost+0x8a>
    80001aa6:	8522                	mv	a0,s0
    80001aa8:	813fe0ef          	jal	ra,800002ba <OS_FlagTaskRdy>
    80001aac:	fb351de3          	bne	a0,s3,80001a66 <OSFlagPost+0x8a>
    80001ab0:	4a85                	li	s5,1
    80001ab2:	bf55                	j	80001a66 <OSFlagPost+0x8a>
    80001ab4:	855a                	mv	a0,s6
    80001ab6:	454030ef          	jal	ra,80004f0a <OS_CPU_SR_Restore>
    80001aba:	06f00793          	li	a5,111
    80001abe:	00f90023          	sb	a5,0(s2)
    80001ac2:	4401                	li	s0,0
    80001ac4:	bf3d                	j	80001a02 <OSFlagPost+0x26>
    80001ac6:	02045583          	lhu	a1,32(s0)
    80001aca:	0104d783          	lhu	a5,16(s1)
    80001ace:	8fed                	and	a5,a5,a1
    80001ad0:	f8f59be3          	bne	a1,a5,80001a66 <OSFlagPost+0x8a>
    80001ad4:	bfc9                	j	80001aa6 <OSFlagPost+0xca>
    80001ad6:	02045583          	lhu	a1,32(s0)
    80001ada:	0104d783          	lhu	a5,16(s1)
    80001ade:	8fed                	and	a5,a5,a1
    80001ae0:	f3d9                	bnez	a5,80001a66 <OSFlagPost+0x8a>
    80001ae2:	b7d1                	j	80001aa6 <OSFlagPost+0xca>
    80001ae4:	426030ef          	jal	ra,80004f0a <OS_CPU_SR_Restore>
    80001ae8:	07100793          	li	a5,113
    80001aec:	00f90023          	sb	a5,0(s2)
    80001af0:	4401                	li	s0,0
    80001af2:	bf01                	j	80001a02 <OSFlagPost+0x26>
    80001af4:	855a                	mv	a0,s6
    80001af6:	414030ef          	jal	ra,80004f0a <OS_CPU_SR_Restore>
    80001afa:	bfad                	j	80001a74 <OSFlagPost+0x98>
    80001afc:	86eff0ef          	jal	ra,80000b6a <OS_Sched>
    80001b00:	bf95                	j	80001a74 <OSFlagPost+0x98>

0000000080001b02 <OSFlagQuery>:
    80001b02:	1101                	addi	sp,sp,-32
    80001b04:	ec06                	sd	ra,24(sp)
    80001b06:	e822                	sd	s0,16(sp)
    80001b08:	e426                	sd	s1,8(sp)
    80001b0a:	00054703          	lbu	a4,0(a0)
    80001b0e:	4795                	li	a5,5
    80001b10:	00f70c63          	beq	a4,a5,80001b28 <OSFlagQuery+0x26>
    80001b14:	4401                	li	s0,0
    80001b16:	8522                	mv	a0,s0
    80001b18:	60e2                	ld	ra,24(sp)
    80001b1a:	6442                	ld	s0,16(sp)
    80001b1c:	4785                	li	a5,1
    80001b1e:	00f58023          	sb	a5,0(a1)
    80001b22:	64a2                	ld	s1,8(sp)
    80001b24:	6105                	addi	sp,sp,32
    80001b26:	8082                	ret
    80001b28:	842a                	mv	s0,a0
    80001b2a:	84ae                	mv	s1,a1
    80001b2c:	3d4030ef          	jal	ra,80004f00 <OS_CPU_SR_Save>
    80001b30:	01045403          	lhu	s0,16(s0)
    80001b34:	3d6030ef          	jal	ra,80004f0a <OS_CPU_SR_Restore>
    80001b38:	00048023          	sb	zero,0(s1)
    80001b3c:	8522                	mv	a0,s0
    80001b3e:	60e2                	ld	ra,24(sp)
    80001b40:	6442                	ld	s0,16(sp)
    80001b42:	64a2                	ld	s1,8(sp)
    80001b44:	6105                	addi	sp,sp,32
    80001b46:	8082                	ret

0000000080001b48 <OS_FlagInit>:
    80001b48:	0007f697          	auipc	a3,0x7f
    80001b4c:	92068693          	addi	a3,a3,-1760 # 80080468 <OSFlagTbl>
    80001b50:	87b6                	mv	a5,a3
    80001b52:	0007f717          	auipc	a4,0x7f
    80001b56:	9b670713          	addi	a4,a4,-1610 # 80080508 <OSTmrTbl>
    80001b5a:	0785                	addi	a5,a5,1
    80001b5c:	fe078fa3          	sb	zero,-1(a5)
    80001b60:	fee79de3          	bne	a5,a4,80001b5a <OS_FlagInit+0x12>
    80001b64:	0007f717          	auipc	a4,0x7f
    80001b68:	90070223          	sb	zero,-1788(a4) # 80080468 <OSFlagTbl>
    80001b6c:	0007e797          	auipc	a5,0x7e
    80001b70:	6f478793          	addi	a5,a5,1780 # 80080260 <OSUnMapTbl+0x260>
    80001b74:	0007f717          	auipc	a4,0x7f
    80001b78:	91470713          	addi	a4,a4,-1772 # 80080488 <OSFlagTbl+0x20>
    80001b7c:	0007f617          	auipc	a2,0x7f
    80001b80:	8ee63a23          	sd	a4,-1804(a2) # 80080470 <OSFlagTbl+0x8>
    80001b84:	0007f717          	auipc	a4,0x7f
    80001b88:	8ef73e23          	sd	a5,-1796(a4) # 80080480 <OSFlagTbl+0x18>
    80001b8c:	0007f717          	auipc	a4,0x7f
    80001b90:	8e070e23          	sb	zero,-1796(a4) # 80080488 <OSFlagTbl+0x20>
    80001b94:	0007f717          	auipc	a4,0x7f
    80001b98:	91470713          	addi	a4,a4,-1772 # 800804a8 <OSFlagTbl+0x40>
    80001b9c:	0007f617          	auipc	a2,0x7f
    80001ba0:	8ee63a23          	sd	a4,-1804(a2) # 80080490 <OSFlagTbl+0x28>
    80001ba4:	0007f717          	auipc	a4,0x7f
    80001ba8:	8ef73e23          	sd	a5,-1796(a4) # 800804a0 <OSFlagTbl+0x38>
    80001bac:	0007f717          	auipc	a4,0x7f
    80001bb0:	8e070e23          	sb	zero,-1796(a4) # 800804a8 <OSFlagTbl+0x40>
    80001bb4:	0007f717          	auipc	a4,0x7f
    80001bb8:	91470713          	addi	a4,a4,-1772 # 800804c8 <OSFlagTbl+0x60>
    80001bbc:	0007f617          	auipc	a2,0x7f
    80001bc0:	8ee63a23          	sd	a4,-1804(a2) # 800804b0 <OSFlagTbl+0x48>
    80001bc4:	0007f717          	auipc	a4,0x7f
    80001bc8:	8ef73e23          	sd	a5,-1796(a4) # 800804c0 <OSFlagTbl+0x58>
    80001bcc:	0007f717          	auipc	a4,0x7f
    80001bd0:	8e070e23          	sb	zero,-1796(a4) # 800804c8 <OSFlagTbl+0x60>
    80001bd4:	0007f717          	auipc	a4,0x7f
    80001bd8:	91470713          	addi	a4,a4,-1772 # 800804e8 <OSFlagTbl+0x80>
    80001bdc:	0007f617          	auipc	a2,0x7f
    80001be0:	8ee63a23          	sd	a4,-1804(a2) # 800804d0 <OSFlagTbl+0x68>
    80001be4:	0007f717          	auipc	a4,0x7f
    80001be8:	8ef73e23          	sd	a5,-1796(a4) # 800804e0 <OSFlagTbl+0x78>
    80001bec:	0007f717          	auipc	a4,0x7f
    80001bf0:	90f73a23          	sd	a5,-1772(a4) # 80080500 <OSFlagTbl+0x98>
    80001bf4:	0007f717          	auipc	a4,0x7f
    80001bf8:	8e070a23          	sb	zero,-1804(a4) # 800804e8 <OSFlagTbl+0x80>
    80001bfc:	0007f717          	auipc	a4,0x7f
    80001c00:	8e073a23          	sd	zero,-1804(a4) # 800804f0 <OSFlagTbl+0x88>
    80001c04:	00081797          	auipc	a5,0x81
    80001c08:	98d7b223          	sd	a3,-1660(a5) # 80082588 <OSFlagFreeList>
    80001c0c:	8082                	ret

0000000080001c0e <OS_FlagUnlink>:
    80001c0e:	6518                	ld	a4,8(a0)
    80001c10:	611c                	ld	a5,0(a0)
    80001c12:	cb01                	beqz	a4,80001c22 <OS_FlagUnlink+0x14>
    80001c14:	e31c                	sd	a5,0(a4)
    80001c16:	c391                	beqz	a5,80001c1a <OS_FlagUnlink+0xc>
    80001c18:	e798                	sd	a4,8(a5)
    80001c1a:	691c                	ld	a5,16(a0)
    80001c1c:	0407b423          	sd	zero,72(a5)
    80001c20:	8082                	ret
    80001c22:	6d18                	ld	a4,24(a0)
    80001c24:	e71c                	sd	a5,8(a4)
    80001c26:	dbf5                	beqz	a5,80001c1a <OS_FlagUnlink+0xc>
    80001c28:	0007b423          	sd	zero,8(a5)
    80001c2c:	691c                	ld	a5,16(a0)
    80001c2e:	0407b423          	sd	zero,72(a5)
    80001c32:	8082                	ret

0000000080001c34 <OSMboxAccept>:
    80001c34:	1101                	addi	sp,sp,-32
    80001c36:	e426                	sd	s1,8(sp)
    80001c38:	ec06                	sd	ra,24(sp)
    80001c3a:	e822                	sd	s0,16(sp)
    80001c3c:	00054703          	lbu	a4,0(a0)
    80001c40:	4785                	li	a5,1
    80001c42:	4481                	li	s1,0
    80001c44:	00f71a63          	bne	a4,a5,80001c58 <OSMboxAccept+0x24>
    80001c48:	842a                	mv	s0,a0
    80001c4a:	2b6030ef          	jal	ra,80004f00 <OS_CPU_SR_Save>
    80001c4e:	6404                	ld	s1,8(s0)
    80001c50:	00043423          	sd	zero,8(s0)
    80001c54:	2b6030ef          	jal	ra,80004f0a <OS_CPU_SR_Restore>
    80001c58:	60e2                	ld	ra,24(sp)
    80001c5a:	6442                	ld	s0,16(sp)
    80001c5c:	8526                	mv	a0,s1
    80001c5e:	64a2                	ld	s1,8(sp)
    80001c60:	6105                	addi	sp,sp,32
    80001c62:	8082                	ret

0000000080001c64 <OSMboxCreate>:
    80001c64:	1101                	addi	sp,sp,-32
    80001c66:	ec06                	sd	ra,24(sp)
    80001c68:	e822                	sd	s0,16(sp)
    80001c6a:	e426                	sd	s1,8(sp)
    80001c6c:	0007f797          	auipc	a5,0x7f
    80001c70:	70c7c783          	lbu	a5,1804(a5) # 80081378 <OSIntNesting>
    80001c74:	efb1                	bnez	a5,80001cd0 <OSMboxCreate+0x6c>
    80001c76:	84aa                	mv	s1,a0
    80001c78:	288030ef          	jal	ra,80004f00 <OS_CPU_SR_Save>
    80001c7c:	0007f797          	auipc	a5,0x7f
    80001c80:	6f478793          	addi	a5,a5,1780 # 80081370 <OSEventFreeList>
    80001c84:	6380                	ld	s0,0(a5)
    80001c86:	cc0d                	beqz	s0,80001cc0 <OSMboxCreate+0x5c>
    80001c88:	641c                	ld	a5,8(s0)
    80001c8a:	0007f717          	auipc	a4,0x7f
    80001c8e:	6ef73323          	sd	a5,1766(a4) # 80081370 <OSEventFreeList>
    80001c92:	278030ef          	jal	ra,80004f0a <OS_CPU_SR_Restore>
    80001c96:	4785                	li	a5,1
    80001c98:	00f40023          	sb	a5,0(s0)
    80001c9c:	0007e797          	auipc	a5,0x7e
    80001ca0:	5c478793          	addi	a5,a5,1476 # 80080260 <OSUnMapTbl+0x260>
    80001ca4:	e404                	sd	s1,8(s0)
    80001ca6:	f01c                	sd	a5,32(s0)
    80001ca8:	00043823          	sd	zero,16(s0)
    80001cac:	00041c23          	sh	zero,24(s0)
    80001cb0:	00040d23          	sb	zero,26(s0)
    80001cb4:	8522                	mv	a0,s0
    80001cb6:	60e2                	ld	ra,24(sp)
    80001cb8:	6442                	ld	s0,16(sp)
    80001cba:	64a2                	ld	s1,8(sp)
    80001cbc:	6105                	addi	sp,sp,32
    80001cbe:	8082                	ret
    80001cc0:	24a030ef          	jal	ra,80004f0a <OS_CPU_SR_Restore>
    80001cc4:	8522                	mv	a0,s0
    80001cc6:	60e2                	ld	ra,24(sp)
    80001cc8:	6442                	ld	s0,16(sp)
    80001cca:	64a2                	ld	s1,8(sp)
    80001ccc:	6105                	addi	sp,sp,32
    80001cce:	8082                	ret
    80001cd0:	4401                	li	s0,0
    80001cd2:	8522                	mv	a0,s0
    80001cd4:	60e2                	ld	ra,24(sp)
    80001cd6:	6442                	ld	s0,16(sp)
    80001cd8:	64a2                	ld	s1,8(sp)
    80001cda:	6105                	addi	sp,sp,32
    80001cdc:	8082                	ret

0000000080001cde <OSMboxDel>:
    80001cde:	7179                	addi	sp,sp,-48
    80001ce0:	f406                	sd	ra,40(sp)
    80001ce2:	f022                	sd	s0,32(sp)
    80001ce4:	ec26                	sd	s1,24(sp)
    80001ce6:	e84a                	sd	s2,16(sp)
    80001ce8:	e44e                	sd	s3,8(sp)
    80001cea:	e052                	sd	s4,0(sp)
    80001cec:	00054483          	lbu	s1,0(a0)
    80001cf0:	4785                	li	a5,1
    80001cf2:	00f48c63          	beq	s1,a5,80001d0a <OSMboxDel+0x2c>
    80001cf6:	00f60023          	sb	a5,0(a2)
    80001cfa:	70a2                	ld	ra,40(sp)
    80001cfc:	7402                	ld	s0,32(sp)
    80001cfe:	64e2                	ld	s1,24(sp)
    80001d00:	6942                	ld	s2,16(sp)
    80001d02:	69a2                	ld	s3,8(sp)
    80001d04:	6a02                	ld	s4,0(sp)
    80001d06:	6145                	addi	sp,sp,48
    80001d08:	8082                	ret
    80001d0a:	0007f797          	auipc	a5,0x7f
    80001d0e:	66e7c783          	lbu	a5,1646(a5) # 80081378 <OSIntNesting>
    80001d12:	c399                	beqz	a5,80001d18 <OSMboxDel+0x3a>
    80001d14:	47bd                	li	a5,15
    80001d16:	b7c5                	j	80001cf6 <OSMboxDel+0x18>
    80001d18:	842a                	mv	s0,a0
    80001d1a:	8932                	mv	s2,a2
    80001d1c:	89ae                	mv	s3,a1
    80001d1e:	1e2030ef          	jal	ra,80004f00 <OS_CPU_SR_Save>
    80001d22:	01244783          	lbu	a5,18(s0)
    80001d26:	8a2a                	mv	s4,a0
    80001d28:	cb99                	beqz	a5,80001d3e <OSMboxDel+0x60>
    80001d2a:	06099263          	bnez	s3,80001d8e <OSMboxDel+0xb0>
    80001d2e:	1dc030ef          	jal	ra,80004f0a <OS_CPU_SR_Restore>
    80001d32:	04900793          	li	a5,73
    80001d36:	00f90023          	sb	a5,0(s2)
    80001d3a:	8522                	mv	a0,s0
    80001d3c:	bf7d                	j	80001cfa <OSMboxDel+0x1c>
    80001d3e:	06098863          	beqz	s3,80001dae <OSMboxDel+0xd0>
    80001d42:	02999e63          	bne	s3,s1,80001d7e <OSMboxDel+0xa0>
    80001d46:	4481                	li	s1,0
    80001d48:	00040023          	sb	zero,0(s0)
    80001d4c:	0007f797          	auipc	a5,0x7f
    80001d50:	62478793          	addi	a5,a5,1572 # 80081370 <OSEventFreeList>
    80001d54:	639c                	ld	a5,0(a5)
    80001d56:	0007e717          	auipc	a4,0x7e
    80001d5a:	50a70713          	addi	a4,a4,1290 # 80080260 <OSUnMapTbl+0x260>
    80001d5e:	f018                	sd	a4,32(s0)
    80001d60:	e41c                	sd	a5,8(s0)
    80001d62:	00041823          	sh	zero,16(s0)
    80001d66:	8552                	mv	a0,s4
    80001d68:	0007f797          	auipc	a5,0x7f
    80001d6c:	6087b423          	sd	s0,1544(a5) # 80081370 <OSEventFreeList>
    80001d70:	19a030ef          	jal	ra,80004f0a <OS_CPU_SR_Restore>
    80001d74:	e895                	bnez	s1,80001da8 <OSMboxDel+0xca>
    80001d76:	00090023          	sb	zero,0(s2)
    80001d7a:	4501                	li	a0,0
    80001d7c:	bfbd                	j	80001cfa <OSMboxDel+0x1c>
    80001d7e:	8552                	mv	a0,s4
    80001d80:	18a030ef          	jal	ra,80004f0a <OS_CPU_SR_Restore>
    80001d84:	479d                	li	a5,7
    80001d86:	00f90023          	sb	a5,0(s2)
    80001d8a:	8522                	mv	a0,s0
    80001d8c:	b7bd                	j	80001cfa <OSMboxDel+0x1c>
    80001d8e:	fe9998e3          	bne	s3,s1,80001d7e <OSMboxDel+0xa0>
    80001d92:	4485                	li	s1,1
    80001d94:	4681                	li	a3,0
    80001d96:	4609                	li	a2,2
    80001d98:	4581                	li	a1,0
    80001d9a:	8522                	mv	a0,s0
    80001d9c:	b25fe0ef          	jal	ra,800008c0 <OS_EventTaskRdy>
    80001da0:	01244783          	lbu	a5,18(s0)
    80001da4:	fbe5                	bnez	a5,80001d94 <OSMboxDel+0xb6>
    80001da6:	b74d                	j	80001d48 <OSMboxDel+0x6a>
    80001da8:	dc3fe0ef          	jal	ra,80000b6a <OS_Sched>
    80001dac:	b7e9                	j	80001d76 <OSMboxDel+0x98>
    80001dae:	00040023          	sb	zero,0(s0)
    80001db2:	0007f797          	auipc	a5,0x7f
    80001db6:	5be78793          	addi	a5,a5,1470 # 80081370 <OSEventFreeList>
    80001dba:	639c                	ld	a5,0(a5)
    80001dbc:	0007e717          	auipc	a4,0x7e
    80001dc0:	4a470713          	addi	a4,a4,1188 # 80080260 <OSUnMapTbl+0x260>
    80001dc4:	f018                	sd	a4,32(s0)
    80001dc6:	e41c                	sd	a5,8(s0)
    80001dc8:	00041823          	sh	zero,16(s0)
    80001dcc:	0007f797          	auipc	a5,0x7f
    80001dd0:	5a87b223          	sd	s0,1444(a5) # 80081370 <OSEventFreeList>
    80001dd4:	136030ef          	jal	ra,80004f0a <OS_CPU_SR_Restore>
    80001dd8:	4501                	li	a0,0
    80001dda:	00090023          	sb	zero,0(s2)
    80001dde:	bf31                	j	80001cfa <OSMboxDel+0x1c>

0000000080001de0 <OSMboxPend>:
    80001de0:	7139                	addi	sp,sp,-64
    80001de2:	fc06                	sd	ra,56(sp)
    80001de4:	f822                	sd	s0,48(sp)
    80001de6:	f426                	sd	s1,40(sp)
    80001de8:	f04a                	sd	s2,32(sp)
    80001dea:	ec4e                	sd	s3,24(sp)
    80001dec:	e852                	sd	s4,16(sp)
    80001dee:	e456                	sd	s5,8(sp)
    80001df0:	00054703          	lbu	a4,0(a0)
    80001df4:	4785                	li	a5,1
    80001df6:	0af71763          	bne	a4,a5,80001ea4 <OSMboxPend+0xc4>
    80001dfa:	0007f797          	auipc	a5,0x7f
    80001dfe:	57e7c783          	lbu	a5,1406(a5) # 80081378 <OSIntNesting>
    80001e02:	ebcd                	bnez	a5,80001eb4 <OSMboxPend+0xd4>
    80001e04:	0007e797          	auipc	a5,0x7e
    80001e08:	6447c783          	lbu	a5,1604(a5) # 80080448 <OSLockNesting>
    80001e0c:	ebd9                	bnez	a5,80001ea2 <OSMboxPend+0xc2>
    80001e0e:	842a                	mv	s0,a0
    80001e10:	89b2                	mv	s3,a2
    80001e12:	892e                	mv	s2,a1
    80001e14:	0ec030ef          	jal	ra,80004f00 <OS_CPU_SR_Save>
    80001e18:	6404                	ld	s1,8(s0)
    80001e1a:	8aaa                	mv	s5,a0
    80001e1c:	c08d                	beqz	s1,80001e3e <OSMboxPend+0x5e>
    80001e1e:	00043423          	sd	zero,8(s0)
    80001e22:	0e8030ef          	jal	ra,80004f0a <OS_CPU_SR_Restore>
    80001e26:	00098023          	sb	zero,0(s3)
    80001e2a:	70e2                	ld	ra,56(sp)
    80001e2c:	7442                	ld	s0,48(sp)
    80001e2e:	8526                	mv	a0,s1
    80001e30:	7902                	ld	s2,32(sp)
    80001e32:	74a2                	ld	s1,40(sp)
    80001e34:	69e2                	ld	s3,24(sp)
    80001e36:	6a42                	ld	s4,16(sp)
    80001e38:	6aa2                	ld	s5,8(sp)
    80001e3a:	6121                	addi	sp,sp,64
    80001e3c:	8082                	ret
    80001e3e:	0007fa17          	auipc	s4,0x7f
    80001e42:	542a0a13          	addi	s4,s4,1346 # 80081380 <OSTCBCur>
    80001e46:	000a3783          	ld	a5,0(s4)
    80001e4a:	8522                	mv	a0,s0
    80001e4c:	0587c703          	lbu	a4,88(a5)
    80001e50:	04078ca3          	sb	zero,89(a5)
    80001e54:	0527aa23          	sw	s2,84(a5)
    80001e58:	00276713          	ori	a4,a4,2
    80001e5c:	04e78c23          	sb	a4,88(a5)
    80001e60:	b63fe0ef          	jal	ra,800009c2 <OS_EventTaskWait>
    80001e64:	8556                	mv	a0,s5
    80001e66:	0a4030ef          	jal	ra,80004f0a <OS_CPU_SR_Restore>
    80001e6a:	d01fe0ef          	jal	ra,80000b6a <OS_Sched>
    80001e6e:	092030ef          	jal	ra,80004f00 <OS_CPU_SR_Save>
    80001e72:	000a3783          	ld	a5,0(s4)
    80001e76:	0597c703          	lbu	a4,89(a5)
    80001e7a:	cb0d                	beqz	a4,80001eac <OSMboxPend+0xcc>
    80001e7c:	4689                	li	a3,2
    80001e7e:	04d71063          	bne	a4,a3,80001ebe <OSMboxPend+0xde>
    80001e82:	47b9                	li	a5,14
    80001e84:	00f98023          	sb	a5,0(s3)
    80001e88:	000a3783          	ld	a5,0(s4)
    80001e8c:	04079c23          	sh	zero,88(a5)
    80001e90:	0207b823          	sd	zero,48(a5)
    80001e94:	0207bc23          	sd	zero,56(a5)
    80001e98:	0407b023          	sd	zero,64(a5)
    80001e9c:	06e030ef          	jal	ra,80004f0a <OS_CPU_SR_Restore>
    80001ea0:	b769                	j	80001e2a <OSMboxPend+0x4a>
    80001ea2:	47b5                	li	a5,13
    80001ea4:	00f60023          	sb	a5,0(a2)
    80001ea8:	4481                	li	s1,0
    80001eaa:	b741                	j	80001e2a <OSMboxPend+0x4a>
    80001eac:	63a4                	ld	s1,64(a5)
    80001eae:	00098023          	sb	zero,0(s3)
    80001eb2:	bfd9                	j	80001e88 <OSMboxPend+0xa8>
    80001eb4:	4789                	li	a5,2
    80001eb6:	00f60023          	sb	a5,0(a2)
    80001eba:	4481                	li	s1,0
    80001ebc:	b7bd                	j	80001e2a <OSMboxPend+0x4a>
    80001ebe:	05c7c683          	lbu	a3,92(a5)
    80001ec2:	05d7c703          	lbu	a4,93(a5)
    80001ec6:	96a2                	add	a3,a3,s0
    80001ec8:	0136c603          	lbu	a2,19(a3)
    80001ecc:	fff74713          	not	a4,a4
    80001ed0:	8f71                	and	a4,a4,a2
    80001ed2:	00e689a3          	sb	a4,19(a3)
    80001ed6:	c709                	beqz	a4,80001ee0 <OSMboxPend+0x100>
    80001ed8:	47a9                	li	a5,10
    80001eda:	00f98023          	sb	a5,0(s3)
    80001ede:	b76d                	j	80001e88 <OSMboxPend+0xa8>
    80001ee0:	05e7c783          	lbu	a5,94(a5)
    80001ee4:	01244703          	lbu	a4,18(s0)
    80001ee8:	fff7c793          	not	a5,a5
    80001eec:	8ff9                	and	a5,a5,a4
    80001eee:	00f40923          	sb	a5,18(s0)
    80001ef2:	b7dd                	j	80001ed8 <OSMboxPend+0xf8>

0000000080001ef4 <OSMboxPendAbort>:
    80001ef4:	7179                	addi	sp,sp,-48
    80001ef6:	f406                	sd	ra,40(sp)
    80001ef8:	f022                	sd	s0,32(sp)
    80001efa:	ec26                	sd	s1,24(sp)
    80001efc:	e84a                	sd	s2,16(sp)
    80001efe:	e44e                	sd	s3,8(sp)
    80001f00:	e052                	sd	s4,0(sp)
    80001f02:	00054403          	lbu	s0,0(a0)
    80001f06:	4785                	li	a5,1
    80001f08:	00f40e63          	beq	s0,a5,80001f24 <OSMboxPendAbort+0x30>
    80001f0c:	00f60023          	sb	a5,0(a2)
    80001f10:	4401                	li	s0,0
    80001f12:	8522                	mv	a0,s0
    80001f14:	70a2                	ld	ra,40(sp)
    80001f16:	7402                	ld	s0,32(sp)
    80001f18:	64e2                	ld	s1,24(sp)
    80001f1a:	6942                	ld	s2,16(sp)
    80001f1c:	69a2                	ld	s3,8(sp)
    80001f1e:	6a02                	ld	s4,0(sp)
    80001f20:	6145                	addi	sp,sp,48
    80001f22:	8082                	ret
    80001f24:	84aa                	mv	s1,a0
    80001f26:	8932                	mv	s2,a2
    80001f28:	89ae                	mv	s3,a1
    80001f2a:	7d7020ef          	jal	ra,80004f00 <OS_CPU_SR_Save>
    80001f2e:	0124c783          	lbu	a5,18(s1)
    80001f32:	8a2a                	mv	s4,a0
    80001f34:	cb8d                	beqz	a5,80001f66 <OSMboxPendAbort+0x72>
    80001f36:	02899e63          	bne	s3,s0,80001f72 <OSMboxPendAbort+0x7e>
    80001f3a:	4401                	li	s0,0
    80001f3c:	4689                	li	a3,2
    80001f3e:	4609                	li	a2,2
    80001f40:	4581                	li	a1,0
    80001f42:	8526                	mv	a0,s1
    80001f44:	97dfe0ef          	jal	ra,800008c0 <OS_EventTaskRdy>
    80001f48:	0124c783          	lbu	a5,18(s1)
    80001f4c:	2405                	addiw	s0,s0,1
    80001f4e:	0ff47413          	andi	s0,s0,255
    80001f52:	f7ed                	bnez	a5,80001f3c <OSMboxPendAbort+0x48>
    80001f54:	8552                	mv	a0,s4
    80001f56:	7b5020ef          	jal	ra,80004f0a <OS_CPU_SR_Restore>
    80001f5a:	c11fe0ef          	jal	ra,80000b6a <OS_Sched>
    80001f5e:	47b9                	li	a5,14
    80001f60:	00f90023          	sb	a5,0(s2)
    80001f64:	b77d                	j	80001f12 <OSMboxPendAbort+0x1e>
    80001f66:	7a5020ef          	jal	ra,80004f0a <OS_CPU_SR_Restore>
    80001f6a:	4401                	li	s0,0
    80001f6c:	00090023          	sb	zero,0(s2)
    80001f70:	b74d                	j	80001f12 <OSMboxPendAbort+0x1e>
    80001f72:	4689                	li	a3,2
    80001f74:	4609                	li	a2,2
    80001f76:	4581                	li	a1,0
    80001f78:	8526                	mv	a0,s1
    80001f7a:	947fe0ef          	jal	ra,800008c0 <OS_EventTaskRdy>
    80001f7e:	bfd9                	j	80001f54 <OSMboxPendAbort+0x60>

0000000080001f80 <OSMboxPost>:
    80001f80:	00054703          	lbu	a4,0(a0)
    80001f84:	4785                	li	a5,1
    80001f86:	00f70463          	beq	a4,a5,80001f8e <OSMboxPost+0xe>
    80001f8a:	4505                	li	a0,1
    80001f8c:	8082                	ret
    80001f8e:	1101                	addi	sp,sp,-32
    80001f90:	e822                	sd	s0,16(sp)
    80001f92:	e426                	sd	s1,8(sp)
    80001f94:	e04a                	sd	s2,0(sp)
    80001f96:	842a                	mv	s0,a0
    80001f98:	ec06                	sd	ra,24(sp)
    80001f9a:	84ae                	mv	s1,a1
    80001f9c:	765020ef          	jal	ra,80004f00 <OS_CPU_SR_Save>
    80001fa0:	01244783          	lbu	a5,18(s0)
    80001fa4:	892a                	mv	s2,a0
    80001fa6:	ef81                	bnez	a5,80001fbe <OSMboxPost+0x3e>
    80001fa8:	641c                	ld	a5,8(s0)
    80001faa:	c79d                	beqz	a5,80001fd8 <OSMboxPost+0x58>
    80001fac:	75f020ef          	jal	ra,80004f0a <OS_CPU_SR_Restore>
    80001fb0:	4551                	li	a0,20
    80001fb2:	60e2                	ld	ra,24(sp)
    80001fb4:	6442                	ld	s0,16(sp)
    80001fb6:	64a2                	ld	s1,8(sp)
    80001fb8:	6902                	ld	s2,0(sp)
    80001fba:	6105                	addi	sp,sp,32
    80001fbc:	8082                	ret
    80001fbe:	4681                	li	a3,0
    80001fc0:	4609                	li	a2,2
    80001fc2:	85a6                	mv	a1,s1
    80001fc4:	8522                	mv	a0,s0
    80001fc6:	8fbfe0ef          	jal	ra,800008c0 <OS_EventTaskRdy>
    80001fca:	854a                	mv	a0,s2
    80001fcc:	73f020ef          	jal	ra,80004f0a <OS_CPU_SR_Restore>
    80001fd0:	b9bfe0ef          	jal	ra,80000b6a <OS_Sched>
    80001fd4:	4501                	li	a0,0
    80001fd6:	bff1                	j	80001fb2 <OSMboxPost+0x32>
    80001fd8:	e404                	sd	s1,8(s0)
    80001fda:	731020ef          	jal	ra,80004f0a <OS_CPU_SR_Restore>
    80001fde:	4501                	li	a0,0
    80001fe0:	bfc9                	j	80001fb2 <OSMboxPost+0x32>

0000000080001fe2 <OSMboxPostOpt>:
    80001fe2:	00054703          	lbu	a4,0(a0)
    80001fe6:	4785                	li	a5,1
    80001fe8:	00f70463          	beq	a4,a5,80001ff0 <OSMboxPostOpt+0xe>
    80001fec:	4505                	li	a0,1
    80001fee:	8082                	ret
    80001ff0:	7139                	addi	sp,sp,-64
    80001ff2:	f822                	sd	s0,48(sp)
    80001ff4:	f426                	sd	s1,40(sp)
    80001ff6:	f04a                	sd	s2,32(sp)
    80001ff8:	ec4e                	sd	s3,24(sp)
    80001ffa:	842a                	mv	s0,a0
    80001ffc:	fc06                	sd	ra,56(sp)
    80001ffe:	8932                	mv	s2,a2
    80002000:	84ae                	mv	s1,a1
    80002002:	6ff020ef          	jal	ra,80004f00 <OS_CPU_SR_Save>
    80002006:	01244783          	lbu	a5,18(s0)
    8000200a:	89aa                	mv	s3,a0
    8000200c:	ef89                	bnez	a5,80002026 <OSMboxPostOpt+0x44>
    8000200e:	641c                	ld	a5,8(s0)
    80002010:	c3b9                	beqz	a5,80002056 <OSMboxPostOpt+0x74>
    80002012:	6f9020ef          	jal	ra,80004f0a <OS_CPU_SR_Restore>
    80002016:	4551                	li	a0,20
    80002018:	70e2                	ld	ra,56(sp)
    8000201a:	7442                	ld	s0,48(sp)
    8000201c:	74a2                	ld	s1,40(sp)
    8000201e:	7902                	ld	s2,32(sp)
    80002020:	69e2                	ld	s3,24(sp)
    80002022:	6121                	addi	sp,sp,64
    80002024:	8082                	ret
    80002026:	00197793          	andi	a5,s2,1
    8000202a:	cb9d                	beqz	a5,80002060 <OSMboxPostOpt+0x7e>
    8000202c:	4681                	li	a3,0
    8000202e:	4609                	li	a2,2
    80002030:	85a6                	mv	a1,s1
    80002032:	8522                	mv	a0,s0
    80002034:	88dfe0ef          	jal	ra,800008c0 <OS_EventTaskRdy>
    80002038:	01244783          	lbu	a5,18(s0)
    8000203c:	fbe5                	bnez	a5,8000202c <OSMboxPostOpt+0x4a>
    8000203e:	854e                	mv	a0,s3
    80002040:	6cb020ef          	jal	ra,80004f0a <OS_CPU_SR_Restore>
    80002044:	00497613          	andi	a2,s2,4
    80002048:	4501                	li	a0,0
    8000204a:	f679                	bnez	a2,80002018 <OSMboxPostOpt+0x36>
    8000204c:	e42a                	sd	a0,8(sp)
    8000204e:	b1dfe0ef          	jal	ra,80000b6a <OS_Sched>
    80002052:	6522                	ld	a0,8(sp)
    80002054:	b7d1                	j	80002018 <OSMboxPostOpt+0x36>
    80002056:	e404                	sd	s1,8(s0)
    80002058:	6b3020ef          	jal	ra,80004f0a <OS_CPU_SR_Restore>
    8000205c:	4501                	li	a0,0
    8000205e:	bf6d                	j	80002018 <OSMboxPostOpt+0x36>
    80002060:	4681                	li	a3,0
    80002062:	4609                	li	a2,2
    80002064:	85a6                	mv	a1,s1
    80002066:	8522                	mv	a0,s0
    80002068:	859fe0ef          	jal	ra,800008c0 <OS_EventTaskRdy>
    8000206c:	bfc9                	j	8000203e <OSMboxPostOpt+0x5c>

000000008000206e <OSMboxQuery>:
    8000206e:	00054703          	lbu	a4,0(a0)
    80002072:	4785                	li	a5,1
    80002074:	00f70463          	beq	a4,a5,8000207c <OSMboxQuery+0xe>
    80002078:	4505                	li	a0,1
    8000207a:	8082                	ret
    8000207c:	1101                	addi	sp,sp,-32
    8000207e:	e822                	sd	s0,16(sp)
    80002080:	e426                	sd	s1,8(sp)
    80002082:	842a                	mv	s0,a0
    80002084:	84ae                	mv	s1,a1
    80002086:	ec06                	sd	ra,24(sp)
    80002088:	679020ef          	jal	ra,80004f00 <OS_CPU_SR_Save>
    8000208c:	01244683          	lbu	a3,18(s0)
    80002090:	01340793          	addi	a5,s0,19
    80002094:	00848713          	addi	a4,s1,8
    80002098:	00d48823          	sb	a3,16(s1)
    8000209c:	01b40613          	addi	a2,s0,27
    800020a0:	0785                	addi	a5,a5,1
    800020a2:	fff7c683          	lbu	a3,-1(a5)
    800020a6:	0705                	addi	a4,a4,1
    800020a8:	fed70fa3          	sb	a3,-1(a4)
    800020ac:	fef61ae3          	bne	a2,a5,800020a0 <OSMboxQuery+0x32>
    800020b0:	641c                	ld	a5,8(s0)
    800020b2:	e09c                	sd	a5,0(s1)
    800020b4:	657020ef          	jal	ra,80004f0a <OS_CPU_SR_Restore>
    800020b8:	60e2                	ld	ra,24(sp)
    800020ba:	6442                	ld	s0,16(sp)
    800020bc:	64a2                	ld	s1,8(sp)
    800020be:	4501                	li	a0,0
    800020c0:	6105                	addi	sp,sp,32
    800020c2:	8082                	ret

00000000800020c4 <OSMemCreate>:
    800020c4:	7179                	addi	sp,sp,-48
    800020c6:	f022                	sd	s0,32(sp)
    800020c8:	ec26                	sd	s1,24(sp)
    800020ca:	e84a                	sd	s2,16(sp)
    800020cc:	e44e                	sd	s3,8(sp)
    800020ce:	e052                	sd	s4,0(sp)
    800020d0:	f406                	sd	ra,40(sp)
    800020d2:	8a2a                	mv	s4,a0
    800020d4:	89ae                	mv	s3,a1
    800020d6:	84b2                	mv	s1,a2
    800020d8:	8936                	mv	s2,a3
    800020da:	627020ef          	jal	ra,80004f00 <OS_CPU_SR_Save>
    800020de:	0007f797          	auipc	a5,0x7f
    800020e2:	daa78793          	addi	a5,a5,-598 # 80080e88 <OSMemFreeList>
    800020e6:	6380                	ld	s0,0(a5)
    800020e8:	c42d                	beqz	s0,80002152 <OSMemCreate+0x8e>
    800020ea:	641c                	ld	a5,8(s0)
    800020ec:	0007f717          	auipc	a4,0x7f
    800020f0:	d8f73e23          	sd	a5,-612(a4) # 80080e88 <OSMemFreeList>
    800020f4:	617020ef          	jal	ra,80004f0a <OS_CPU_SR_Restore>
    800020f8:	fff9861b          	addiw	a2,s3,-1
    800020fc:	c235                	beqz	a2,80002160 <OSMemCreate+0x9c>
    800020fe:	02049513          	slli	a0,s1,0x20
    80002102:	9101                	srli	a0,a0,0x20
    80002104:	8752                	mv	a4,s4
    80002106:	4781                	li	a5,0
    80002108:	00a706b3          	add	a3,a4,a0
    8000210c:	e314                	sd	a3,0(a4)
    8000210e:	2785                	addiw	a5,a5,1
    80002110:	8736                	mv	a4,a3
    80002112:	fef61be3          	bne	a2,a5,80002108 <OSMemCreate+0x44>
    80002116:	ffe9879b          	addiw	a5,s3,-2
    8000211a:	1782                	slli	a5,a5,0x20
    8000211c:	9381                	srli	a5,a5,0x20
    8000211e:	0785                	addi	a5,a5,1
    80002120:	02a787b3          	mul	a5,a5,a0
    80002124:	97d2                	add	a5,a5,s4
    80002126:	0007b023          	sd	zero,0(a5)
    8000212a:	01443023          	sd	s4,0(s0)
    8000212e:	01443423          	sd	s4,8(s0)
    80002132:	01342c23          	sw	s3,24(s0)
    80002136:	01342a23          	sw	s3,20(s0)
    8000213a:	c804                	sw	s1,16(s0)
    8000213c:	00090023          	sb	zero,0(s2)
    80002140:	8522                	mv	a0,s0
    80002142:	70a2                	ld	ra,40(sp)
    80002144:	7402                	ld	s0,32(sp)
    80002146:	64e2                	ld	s1,24(sp)
    80002148:	6942                	ld	s2,16(sp)
    8000214a:	69a2                	ld	s3,8(sp)
    8000214c:	6a02                	ld	s4,0(sp)
    8000214e:	6145                	addi	sp,sp,48
    80002150:	8082                	ret
    80002152:	5b9020ef          	jal	ra,80004f0a <OS_CPU_SR_Restore>
    80002156:	05a00793          	li	a5,90
    8000215a:	00f90023          	sb	a5,0(s2)
    8000215e:	b7cd                	j	80002140 <OSMemCreate+0x7c>
    80002160:	87d2                	mv	a5,s4
    80002162:	b7d1                	j	80002126 <OSMemCreate+0x62>

0000000080002164 <OSMemGet>:
    80002164:	1101                	addi	sp,sp,-32
    80002166:	e822                	sd	s0,16(sp)
    80002168:	e04a                	sd	s2,0(sp)
    8000216a:	842a                	mv	s0,a0
    8000216c:	ec06                	sd	ra,24(sp)
    8000216e:	e426                	sd	s1,8(sp)
    80002170:	892e                	mv	s2,a1
    80002172:	58f020ef          	jal	ra,80004f00 <OS_CPU_SR_Save>
    80002176:	4c1c                	lw	a5,24(s0)
    80002178:	c38d                	beqz	a5,8000219a <OSMemGet+0x36>
    8000217a:	6404                	ld	s1,8(s0)
    8000217c:	37fd                	addiw	a5,a5,-1
    8000217e:	6098                	ld	a4,0(s1)
    80002180:	cc1c                	sw	a5,24(s0)
    80002182:	e418                	sd	a4,8(s0)
    80002184:	587020ef          	jal	ra,80004f0a <OS_CPU_SR_Restore>
    80002188:	00090023          	sb	zero,0(s2)
    8000218c:	60e2                	ld	ra,24(sp)
    8000218e:	6442                	ld	s0,16(sp)
    80002190:	8526                	mv	a0,s1
    80002192:	6902                	ld	s2,0(sp)
    80002194:	64a2                	ld	s1,8(sp)
    80002196:	6105                	addi	sp,sp,32
    80002198:	8082                	ret
    8000219a:	571020ef          	jal	ra,80004f0a <OS_CPU_SR_Restore>
    8000219e:	05d00793          	li	a5,93
    800021a2:	00f90023          	sb	a5,0(s2)
    800021a6:	4481                	li	s1,0
    800021a8:	b7d5                	j	8000218c <OSMemGet+0x28>

00000000800021aa <OSMemNameGet>:
    800021aa:	7179                	addi	sp,sp,-48
    800021ac:	f022                	sd	s0,32(sp)
    800021ae:	f406                	sd	ra,40(sp)
    800021b0:	ec26                	sd	s1,24(sp)
    800021b2:	e84a                	sd	s2,16(sp)
    800021b4:	e44e                	sd	s3,8(sp)
    800021b6:	0007f417          	auipc	s0,0x7f
    800021ba:	1c244403          	lbu	s0,450(s0) # 80081378 <OSIntNesting>
    800021be:	cc09                	beqz	s0,800021d8 <OSMemNameGet+0x2e>
    800021c0:	4401                	li	s0,0
    800021c2:	8522                	mv	a0,s0
    800021c4:	70a2                	ld	ra,40(sp)
    800021c6:	7402                	ld	s0,32(sp)
    800021c8:	47c5                	li	a5,17
    800021ca:	00f60023          	sb	a5,0(a2)
    800021ce:	64e2                	ld	s1,24(sp)
    800021d0:	6942                	ld	s2,16(sp)
    800021d2:	69a2                	ld	s3,8(sp)
    800021d4:	6145                	addi	sp,sp,48
    800021d6:	8082                	ret
    800021d8:	892e                	mv	s2,a1
    800021da:	89aa                	mv	s3,a0
    800021dc:	84b2                	mv	s1,a2
    800021de:	523020ef          	jal	ra,80004f00 <OS_CPU_SR_Save>
    800021e2:	0209b783          	ld	a5,32(s3)
    800021e6:	00f93023          	sd	a5,0(s2)
    800021ea:	0007c703          	lbu	a4,0(a5)
    800021ee:	cb01                	beqz	a4,800021fe <OSMemNameGet+0x54>
    800021f0:	0785                	addi	a5,a5,1
    800021f2:	0007c703          	lbu	a4,0(a5)
    800021f6:	2405                	addiw	s0,s0,1
    800021f8:	0ff47413          	andi	s0,s0,255
    800021fc:	fb75                	bnez	a4,800021f0 <OSMemNameGet+0x46>
    800021fe:	50d020ef          	jal	ra,80004f0a <OS_CPU_SR_Restore>
    80002202:	00048023          	sb	zero,0(s1)
    80002206:	8522                	mv	a0,s0
    80002208:	70a2                	ld	ra,40(sp)
    8000220a:	7402                	ld	s0,32(sp)
    8000220c:	64e2                	ld	s1,24(sp)
    8000220e:	6942                	ld	s2,16(sp)
    80002210:	69a2                	ld	s3,8(sp)
    80002212:	6145                	addi	sp,sp,48
    80002214:	8082                	ret

0000000080002216 <OSMemNameSet>:
    80002216:	0007f797          	auipc	a5,0x7f
    8000221a:	1627c783          	lbu	a5,354(a5) # 80081378 <OSIntNesting>
    8000221e:	c789                	beqz	a5,80002228 <OSMemNameSet+0x12>
    80002220:	47c9                	li	a5,18
    80002222:	00f60023          	sb	a5,0(a2)
    80002226:	8082                	ret
    80002228:	1101                	addi	sp,sp,-32
    8000222a:	e426                	sd	s1,8(sp)
    8000222c:	e04a                	sd	s2,0(sp)
    8000222e:	84aa                	mv	s1,a0
    80002230:	892e                	mv	s2,a1
    80002232:	ec06                	sd	ra,24(sp)
    80002234:	e822                	sd	s0,16(sp)
    80002236:	8432                	mv	s0,a2
    80002238:	4c9020ef          	jal	ra,80004f00 <OS_CPU_SR_Save>
    8000223c:	0324b023          	sd	s2,32(s1)
    80002240:	4cb020ef          	jal	ra,80004f0a <OS_CPU_SR_Restore>
    80002244:	00040023          	sb	zero,0(s0)
    80002248:	60e2                	ld	ra,24(sp)
    8000224a:	6442                	ld	s0,16(sp)
    8000224c:	64a2                	ld	s1,8(sp)
    8000224e:	6902                	ld	s2,0(sp)
    80002250:	6105                	addi	sp,sp,32
    80002252:	8082                	ret

0000000080002254 <OSMemPut>:
    80002254:	1101                	addi	sp,sp,-32
    80002256:	e822                	sd	s0,16(sp)
    80002258:	e426                	sd	s1,8(sp)
    8000225a:	842a                	mv	s0,a0
    8000225c:	ec06                	sd	ra,24(sp)
    8000225e:	84ae                	mv	s1,a1
    80002260:	4a1020ef          	jal	ra,80004f00 <OS_CPU_SR_Save>
    80002264:	4c18                	lw	a4,24(s0)
    80002266:	485c                	lw	a5,20(s0)
    80002268:	02f77063          	bleu	a5,a4,80002288 <OSMemPut+0x34>
    8000226c:	641c                	ld	a5,8(s0)
    8000226e:	e09c                	sd	a5,0(s1)
    80002270:	4c1c                	lw	a5,24(s0)
    80002272:	e404                	sd	s1,8(s0)
    80002274:	2785                	addiw	a5,a5,1
    80002276:	cc1c                	sw	a5,24(s0)
    80002278:	493020ef          	jal	ra,80004f0a <OS_CPU_SR_Restore>
    8000227c:	60e2                	ld	ra,24(sp)
    8000227e:	6442                	ld	s0,16(sp)
    80002280:	64a2                	ld	s1,8(sp)
    80002282:	4501                	li	a0,0
    80002284:	6105                	addi	sp,sp,32
    80002286:	8082                	ret
    80002288:	483020ef          	jal	ra,80004f0a <OS_CPU_SR_Restore>
    8000228c:	60e2                	ld	ra,24(sp)
    8000228e:	6442                	ld	s0,16(sp)
    80002290:	64a2                	ld	s1,8(sp)
    80002292:	05e00513          	li	a0,94
    80002296:	6105                	addi	sp,sp,32
    80002298:	8082                	ret

000000008000229a <OSMemQuery>:
    8000229a:	1101                	addi	sp,sp,-32
    8000229c:	ec06                	sd	ra,24(sp)
    8000229e:	e822                	sd	s0,16(sp)
    800022a0:	e426                	sd	s1,8(sp)
    800022a2:	842e                	mv	s0,a1
    800022a4:	84aa                	mv	s1,a0
    800022a6:	45b020ef          	jal	ra,80004f00 <OS_CPU_SR_Save>
    800022aa:	609c                	ld	a5,0(s1)
    800022ac:	e01c                	sd	a5,0(s0)
    800022ae:	649c                	ld	a5,8(s1)
    800022b0:	e41c                	sd	a5,8(s0)
    800022b2:	489c                	lw	a5,16(s1)
    800022b4:	c81c                	sw	a5,16(s0)
    800022b6:	48dc                	lw	a5,20(s1)
    800022b8:	c85c                	sw	a5,20(s0)
    800022ba:	4c9c                	lw	a5,24(s1)
    800022bc:	cc1c                	sw	a5,24(s0)
    800022be:	44d020ef          	jal	ra,80004f0a <OS_CPU_SR_Restore>
    800022c2:	485c                	lw	a5,20(s0)
    800022c4:	4c18                	lw	a4,24(s0)
    800022c6:	4501                	li	a0,0
    800022c8:	9f99                	subw	a5,a5,a4
    800022ca:	cc5c                	sw	a5,28(s0)
    800022cc:	60e2                	ld	ra,24(sp)
    800022ce:	6442                	ld	s0,16(sp)
    800022d0:	64a2                	ld	s1,8(sp)
    800022d2:	6105                	addi	sp,sp,32
    800022d4:	8082                	ret

00000000800022d6 <OS_MemInit>:
    800022d6:	0007e697          	auipc	a3,0x7e
    800022da:	6c268693          	addi	a3,a3,1730 # 80080998 <OSMemTbl>
    800022de:	87b6                	mv	a5,a3
    800022e0:	0007e717          	auipc	a4,0x7e
    800022e4:	78070713          	addi	a4,a4,1920 # 80080a60 <OSTickStepState>
    800022e8:	0785                	addi	a5,a5,1
    800022ea:	fe078fa3          	sb	zero,-1(a5)
    800022ee:	fee79de3          	bne	a5,a4,800022e8 <OS_MemInit+0x12>
    800022f2:	0007e797          	auipc	a5,0x7e
    800022f6:	f6e78793          	addi	a5,a5,-146 # 80080260 <OSUnMapTbl+0x260>
    800022fa:	0007e717          	auipc	a4,0x7e
    800022fe:	6c670713          	addi	a4,a4,1734 # 800809c0 <OSMemTbl+0x28>
    80002302:	0007e617          	auipc	a2,0x7e
    80002306:	68e63f23          	sd	a4,1694(a2) # 800809a0 <OSMemTbl+0x8>
    8000230a:	0007e717          	auipc	a4,0x7e
    8000230e:	6af73723          	sd	a5,1710(a4) # 800809b8 <OSMemTbl+0x20>
    80002312:	0007e717          	auipc	a4,0x7e
    80002316:	6d670713          	addi	a4,a4,1750 # 800809e8 <OSMemTbl+0x50>
    8000231a:	0007e617          	auipc	a2,0x7e
    8000231e:	6ae63723          	sd	a4,1710(a2) # 800809c8 <OSMemTbl+0x30>
    80002322:	0007e717          	auipc	a4,0x7e
    80002326:	6af73f23          	sd	a5,1726(a4) # 800809e0 <OSMemTbl+0x48>
    8000232a:	0007e717          	auipc	a4,0x7e
    8000232e:	6e670713          	addi	a4,a4,1766 # 80080a10 <OSMemTbl+0x78>
    80002332:	0007e617          	auipc	a2,0x7e
    80002336:	6ae63f23          	sd	a4,1726(a2) # 800809f0 <OSMemTbl+0x58>
    8000233a:	0007e717          	auipc	a4,0x7e
    8000233e:	6cf73723          	sd	a5,1742(a4) # 80080a08 <OSMemTbl+0x70>
    80002342:	0007e717          	auipc	a4,0x7e
    80002346:	6f670713          	addi	a4,a4,1782 # 80080a38 <OSMemTbl+0xa0>
    8000234a:	0007e617          	auipc	a2,0x7e
    8000234e:	6ce63723          	sd	a4,1742(a2) # 80080a18 <OSMemTbl+0x80>
    80002352:	0007e717          	auipc	a4,0x7e
    80002356:	6cf73f23          	sd	a5,1758(a4) # 80080a30 <OSMemTbl+0x98>
    8000235a:	0007e717          	auipc	a4,0x7e
    8000235e:	6ef73f23          	sd	a5,1790(a4) # 80080a58 <OSMemTbl+0xc0>
    80002362:	0007e717          	auipc	a4,0x7e
    80002366:	6c073f23          	sd	zero,1758(a4) # 80080a40 <OSMemTbl+0xa8>
    8000236a:	0007f797          	auipc	a5,0x7f
    8000236e:	b0d7bf23          	sd	a3,-1250(a5) # 80080e88 <OSMemFreeList>
    80002372:	8082                	ret

0000000080002374 <OSMutexAccept>:
    80002374:	00054703          	lbu	a4,0(a0)
    80002378:	4791                	li	a5,4
    8000237a:	00f70763          	beq	a4,a5,80002388 <OSMutexAccept+0x14>
    8000237e:	4785                	li	a5,1
    80002380:	00f58023          	sb	a5,0(a1)
    80002384:	4501                	li	a0,0
    80002386:	8082                	ret
    80002388:	0007f797          	auipc	a5,0x7f
    8000238c:	ff07c783          	lbu	a5,-16(a5) # 80081378 <OSIntNesting>
    80002390:	c791                	beqz	a5,8000239c <OSMutexAccept+0x28>
    80002392:	4789                	li	a5,2
    80002394:	00f58023          	sb	a5,0(a1)
    80002398:	4501                	li	a0,0
    8000239a:	8082                	ret
    8000239c:	1101                	addi	sp,sp,-32
    8000239e:	e822                	sd	s0,16(sp)
    800023a0:	e426                	sd	s1,8(sp)
    800023a2:	842a                	mv	s0,a0
    800023a4:	ec06                	sd	ra,24(sp)
    800023a6:	84ae                	mv	s1,a1
    800023a8:	359020ef          	jal	ra,80004f00 <OS_CPU_SR_Save>
    800023ac:	01045783          	lhu	a5,16(s0)
    800023b0:	0ff00713          	li	a4,255
    800023b4:	0ff7f693          	andi	a3,a5,255
    800023b8:	04e69063          	bne	a3,a4,800023f8 <OSMutexAccept+0x84>
    800023bc:	0007f717          	auipc	a4,0x7f
    800023c0:	fc470713          	addi	a4,a4,-60 # 80081380 <OSTCBCur>
    800023c4:	6314                	ld	a3,0(a4)
    800023c6:	f007f713          	andi	a4,a5,-256
    800023ca:	1742                	slli	a4,a4,0x30
    800023cc:	9341                	srli	a4,a4,0x30
    800023ce:	00e41823          	sh	a4,16(s0)
    800023d2:	05a6c603          	lbu	a2,90(a3)
    800023d6:	e414                	sd	a3,8(s0)
    800023d8:	83a1                	srli	a5,a5,0x8
    800023da:	8f51                	or	a4,a4,a2
    800023dc:	00e41823          	sh	a4,16(s0)
    800023e0:	05a6c703          	lbu	a4,90(a3)
    800023e4:	02e7e463          	bltu	a5,a4,8000240c <OSMutexAccept+0x98>
    800023e8:	323020ef          	jal	ra,80004f0a <OS_CPU_SR_Restore>
    800023ec:	07800793          	li	a5,120
    800023f0:	00f48023          	sb	a5,0(s1)
    800023f4:	4505                	li	a0,1
    800023f6:	a031                	j	80002402 <OSMutexAccept+0x8e>
    800023f8:	313020ef          	jal	ra,80004f0a <OS_CPU_SR_Restore>
    800023fc:	4501                	li	a0,0
    800023fe:	00048023          	sb	zero,0(s1)
    80002402:	60e2                	ld	ra,24(sp)
    80002404:	6442                	ld	s0,16(sp)
    80002406:	64a2                	ld	s1,8(sp)
    80002408:	6105                	addi	sp,sp,32
    8000240a:	8082                	ret
    8000240c:	2ff020ef          	jal	ra,80004f0a <OS_CPU_SR_Restore>
    80002410:	4505                	li	a0,1
    80002412:	00048023          	sb	zero,0(s1)
    80002416:	b7f5                	j	80002402 <OSMutexAccept+0x8e>

0000000080002418 <OSMutexCreate>:
    80002418:	1101                	addi	sp,sp,-32
    8000241a:	ec06                	sd	ra,24(sp)
    8000241c:	e822                	sd	s0,16(sp)
    8000241e:	e426                	sd	s1,8(sp)
    80002420:	e04a                	sd	s2,0(sp)
    80002422:	0007f797          	auipc	a5,0x7f
    80002426:	f567c783          	lbu	a5,-170(a5) # 80081378 <OSIntNesting>
    8000242a:	efbd                	bnez	a5,800024a8 <OSMutexCreate+0x90>
    8000242c:	84aa                	mv	s1,a0
    8000242e:	892e                	mv	s2,a1
    80002430:	2d1020ef          	jal	ra,80004f00 <OS_CPU_SR_Save>
    80002434:	00349713          	slli	a4,s1,0x3
    80002438:	00080797          	auipc	a5,0x80
    8000243c:	16078793          	addi	a5,a5,352 # 80082598 <OSTCBPrioTbl>
    80002440:	97ba                	add	a5,a5,a4
    80002442:	6398                	ld	a4,0(a5)
    80002444:	ef2d                	bnez	a4,800024be <OSMutexCreate+0xa6>
    80002446:	0007f717          	auipc	a4,0x7f
    8000244a:	f2a70713          	addi	a4,a4,-214 # 80081370 <OSEventFreeList>
    8000244e:	6300                	ld	s0,0(a4)
    80002450:	4705                	li	a4,1
    80002452:	e398                	sd	a4,0(a5)
    80002454:	cc2d                	beqz	s0,800024ce <OSMutexCreate+0xb6>
    80002456:	641c                	ld	a5,8(s0)
    80002458:	04a2                	slli	s1,s1,0x8
    8000245a:	0ff4e493          	ori	s1,s1,255
    8000245e:	0007f717          	auipc	a4,0x7f
    80002462:	f0f73923          	sd	a5,-238(a4) # 80081370 <OSEventFreeList>
    80002466:	2a5020ef          	jal	ra,80004f0a <OS_CPU_SR_Restore>
    8000246a:	4791                	li	a5,4
    8000246c:	00f40023          	sb	a5,0(s0)
    80002470:	0007e797          	auipc	a5,0x7e
    80002474:	df078793          	addi	a5,a5,-528 # 80080260 <OSUnMapTbl+0x260>
    80002478:	00941823          	sh	s1,16(s0)
    8000247c:	00043423          	sd	zero,8(s0)
    80002480:	f01c                	sd	a5,32(s0)
    80002482:	00041923          	sh	zero,18(s0)
    80002486:	00041a23          	sh	zero,20(s0)
    8000248a:	00041b23          	sh	zero,22(s0)
    8000248e:	00041c23          	sh	zero,24(s0)
    80002492:	00040d23          	sb	zero,26(s0)
    80002496:	00090023          	sb	zero,0(s2)
    8000249a:	8522                	mv	a0,s0
    8000249c:	60e2                	ld	ra,24(sp)
    8000249e:	6442                	ld	s0,16(sp)
    800024a0:	64a2                	ld	s1,8(sp)
    800024a2:	6902                	ld	s2,0(sp)
    800024a4:	6105                	addi	sp,sp,32
    800024a6:	8082                	ret
    800024a8:	4401                	li	s0,0
    800024aa:	8522                	mv	a0,s0
    800024ac:	60e2                	ld	ra,24(sp)
    800024ae:	6442                	ld	s0,16(sp)
    800024b0:	47c1                	li	a5,16
    800024b2:	00f58023          	sb	a5,0(a1)
    800024b6:	64a2                	ld	s1,8(sp)
    800024b8:	6902                	ld	s2,0(sp)
    800024ba:	6105                	addi	sp,sp,32
    800024bc:	8082                	ret
    800024be:	24d020ef          	jal	ra,80004f0a <OS_CPU_SR_Restore>
    800024c2:	02800793          	li	a5,40
    800024c6:	00f90023          	sb	a5,0(s2)
    800024ca:	4401                	li	s0,0
    800024cc:	b7f9                	j	8000249a <OSMutexCreate+0x82>
    800024ce:	0007b023          	sd	zero,0(a5)
    800024d2:	239020ef          	jal	ra,80004f0a <OS_CPU_SR_Restore>
    800024d6:	4791                	li	a5,4
    800024d8:	00f90023          	sb	a5,0(s2)
    800024dc:	bf7d                	j	8000249a <OSMutexCreate+0x82>

00000000800024de <OSMutexDel>:
    800024de:	00054703          	lbu	a4,0(a0)
    800024e2:	4791                	li	a5,4
    800024e4:	00f70663          	beq	a4,a5,800024f0 <OSMutexDel+0x12>
    800024e8:	4785                	li	a5,1
    800024ea:	00f60023          	sb	a5,0(a2)
    800024ee:	8082                	ret
    800024f0:	0007f797          	auipc	a5,0x7f
    800024f4:	e887c783          	lbu	a5,-376(a5) # 80081378 <OSIntNesting>
    800024f8:	c789                	beqz	a5,80002502 <OSMutexDel+0x24>
    800024fa:	47bd                	li	a5,15
    800024fc:	00f60023          	sb	a5,0(a2)
    80002500:	8082                	ret
    80002502:	7179                	addi	sp,sp,-48
    80002504:	f022                	sd	s0,32(sp)
    80002506:	ec26                	sd	s1,24(sp)
    80002508:	e84a                	sd	s2,16(sp)
    8000250a:	e44e                	sd	s3,8(sp)
    8000250c:	842a                	mv	s0,a0
    8000250e:	f406                	sd	ra,40(sp)
    80002510:	84b2                	mv	s1,a2
    80002512:	892e                	mv	s2,a1
    80002514:	1ed020ef          	jal	ra,80004f00 <OS_CPU_SR_Save>
    80002518:	01244783          	lbu	a5,18(s0)
    8000251c:	89aa                	mv	s3,a0
    8000251e:	c38d                	beqz	a5,80002540 <OSMutexDel+0x62>
    80002520:	06091263          	bnez	s2,80002584 <OSMutexDel+0xa6>
    80002524:	1e7020ef          	jal	ra,80004f0a <OS_CPU_SR_Restore>
    80002528:	04900793          	li	a5,73
    8000252c:	00f48023          	sb	a5,0(s1)
    80002530:	8522                	mv	a0,s0
    80002532:	70a2                	ld	ra,40(sp)
    80002534:	7402                	ld	s0,32(sp)
    80002536:	64e2                	ld	s1,24(sp)
    80002538:	6942                	ld	s2,16(sp)
    8000253a:	69a2                	ld	s3,8(sp)
    8000253c:	6145                	addi	sp,sp,48
    8000253e:	8082                	ret
    80002540:	0a090863          	beqz	s2,800025f0 <OSMutexDel+0x112>
    80002544:	4705                	li	a4,1
    80002546:	02e91763          	bne	s2,a4,80002574 <OSMutexDel+0x96>
    8000254a:	4901                	li	s2,0
    8000254c:	6408                	ld	a0,8(s0)
    8000254e:	c909                	beqz	a0,80002560 <OSMutexDel+0x82>
    80002550:	01045583          	lhu	a1,16(s0)
    80002554:	05a54683          	lbu	a3,90(a0)
    80002558:	0085d713          	srli	a4,a1,0x8
    8000255c:	02e68963          	beq	a3,a4,8000258e <OSMutexDel+0xb0>
    80002560:	cf95                	beqz	a5,8000259c <OSMutexDel+0xbe>
    80002562:	4681                	li	a3,0
    80002564:	4641                	li	a2,16
    80002566:	4581                	li	a1,0
    80002568:	8522                	mv	a0,s0
    8000256a:	b56fe0ef          	jal	ra,800008c0 <OS_EventTaskRdy>
    8000256e:	01244783          	lbu	a5,18(s0)
    80002572:	b7fd                	j	80002560 <OSMutexDel+0x82>
    80002574:	854e                	mv	a0,s3
    80002576:	195020ef          	jal	ra,80004f0a <OS_CPU_SR_Restore>
    8000257a:	479d                	li	a5,7
    8000257c:	00f48023          	sb	a5,0(s1)
    80002580:	8522                	mv	a0,s0
    80002582:	bf45                	j	80002532 <OSMutexDel+0x54>
    80002584:	4705                	li	a4,1
    80002586:	fee917e3          	bne	s2,a4,80002574 <OSMutexDel+0x96>
    8000258a:	4905                	li	s2,1
    8000258c:	b7c1                	j	8000254c <OSMutexDel+0x6e>
    8000258e:	0ff5f593          	andi	a1,a1,255
    80002592:	da3fd0ef          	jal	ra,80000334 <OSMutex_RdyAtPrio>
    80002596:	01244783          	lbu	a5,18(s0)
    8000259a:	b7d9                	j	80002560 <OSMutexDel+0x82>
    8000259c:	01045783          	lhu	a5,16(s0)
    800025a0:	0007e717          	auipc	a4,0x7e
    800025a4:	cc070713          	addi	a4,a4,-832 # 80080260 <OSUnMapTbl+0x260>
    800025a8:	f018                	sd	a4,32(s0)
    800025aa:	83a1                	srli	a5,a5,0x8
    800025ac:	078e                	slli	a5,a5,0x3
    800025ae:	00080717          	auipc	a4,0x80
    800025b2:	fea70713          	addi	a4,a4,-22 # 80082598 <OSTCBPrioTbl>
    800025b6:	97ba                	add	a5,a5,a4
    800025b8:	0007b023          	sd	zero,0(a5)
    800025bc:	00040023          	sb	zero,0(s0)
    800025c0:	0007f797          	auipc	a5,0x7f
    800025c4:	db078793          	addi	a5,a5,-592 # 80081370 <OSEventFreeList>
    800025c8:	639c                	ld	a5,0(a5)
    800025ca:	00041823          	sh	zero,16(s0)
    800025ce:	854e                	mv	a0,s3
    800025d0:	e41c                	sd	a5,8(s0)
    800025d2:	0007f797          	auipc	a5,0x7f
    800025d6:	d887bf23          	sd	s0,-610(a5) # 80081370 <OSEventFreeList>
    800025da:	131020ef          	jal	ra,80004f0a <OS_CPU_SR_Restore>
    800025de:	00091663          	bnez	s2,800025ea <OSMutexDel+0x10c>
    800025e2:	00048023          	sb	zero,0(s1)
    800025e6:	4501                	li	a0,0
    800025e8:	b7a9                	j	80002532 <OSMutexDel+0x54>
    800025ea:	d80fe0ef          	jal	ra,80000b6a <OS_Sched>
    800025ee:	bfd5                	j	800025e2 <OSMutexDel+0x104>
    800025f0:	01045783          	lhu	a5,16(s0)
    800025f4:	0007e717          	auipc	a4,0x7e
    800025f8:	c6c70713          	addi	a4,a4,-916 # 80080260 <OSUnMapTbl+0x260>
    800025fc:	f018                	sd	a4,32(s0)
    800025fe:	83a1                	srli	a5,a5,0x8
    80002600:	00080717          	auipc	a4,0x80
    80002604:	f9870713          	addi	a4,a4,-104 # 80082598 <OSTCBPrioTbl>
    80002608:	078e                	slli	a5,a5,0x3
    8000260a:	97ba                	add	a5,a5,a4
    8000260c:	0007b023          	sd	zero,0(a5)
    80002610:	00040023          	sb	zero,0(s0)
    80002614:	0007f797          	auipc	a5,0x7f
    80002618:	d5c78793          	addi	a5,a5,-676 # 80081370 <OSEventFreeList>
    8000261c:	639c                	ld	a5,0(a5)
    8000261e:	00041823          	sh	zero,16(s0)
    80002622:	0007f717          	auipc	a4,0x7f
    80002626:	d4873723          	sd	s0,-690(a4) # 80081370 <OSEventFreeList>
    8000262a:	e41c                	sd	a5,8(s0)
    8000262c:	0df020ef          	jal	ra,80004f0a <OS_CPU_SR_Restore>
    80002630:	4501                	li	a0,0
    80002632:	00048023          	sb	zero,0(s1)
    80002636:	bdf5                	j	80002532 <OSMutexDel+0x54>

0000000080002638 <OSMutexPend>:
    80002638:	00054703          	lbu	a4,0(a0)
    8000263c:	4791                	li	a5,4
    8000263e:	00f70663          	beq	a4,a5,8000264a <OSMutexPend+0x12>
    80002642:	4785                	li	a5,1
    80002644:	00f60023          	sb	a5,0(a2)
    80002648:	8082                	ret
    8000264a:	0007f797          	auipc	a5,0x7f
    8000264e:	d2e7c783          	lbu	a5,-722(a5) # 80081378 <OSIntNesting>
    80002652:	16079163          	bnez	a5,800027b4 <OSMutexPend+0x17c>
    80002656:	0007e797          	auipc	a5,0x7e
    8000265a:	df27c783          	lbu	a5,-526(a5) # 80080448 <OSLockNesting>
    8000265e:	c789                	beqz	a5,80002668 <OSMutexPend+0x30>
    80002660:	47b5                	li	a5,13
    80002662:	00f60023          	sb	a5,0(a2)
    80002666:	8082                	ret
    80002668:	7179                	addi	sp,sp,-48
    8000266a:	f022                	sd	s0,32(sp)
    8000266c:	ec26                	sd	s1,24(sp)
    8000266e:	e84a                	sd	s2,16(sp)
    80002670:	e052                	sd	s4,0(sp)
    80002672:	84b2                	mv	s1,a2
    80002674:	892e                	mv	s2,a1
    80002676:	842a                	mv	s0,a0
    80002678:	f406                	sd	ra,40(sp)
    8000267a:	e44e                	sd	s3,8(sp)
    8000267c:	085020ef          	jal	ra,80004f00 <OS_CPU_SR_Save>
    80002680:	01045783          	lhu	a5,16(s0)
    80002684:	0ff00713          	li	a4,255
    80002688:	8a2a                	mv	s4,a0
    8000268a:	0087d59b          	srliw	a1,a5,0x8
    8000268e:	0ff7f613          	andi	a2,a5,255
    80002692:	86ae                	mv	a3,a1
    80002694:	12e60463          	beq	a2,a4,800027bc <OSMutexPend+0x184>
    80002698:	6418                	ld	a4,8(s0)
    8000269a:	0007f997          	auipc	s3,0x7f
    8000269e:	ce698993          	addi	s3,s3,-794 # 80081380 <OSTCBCur>
    800026a2:	0009b783          	ld	a5,0(s3)
    800026a6:	05a74503          	lbu	a0,90(a4)
    800026aa:	0aa6f563          	bleu	a0,a3,80002754 <OSMutexPend+0x11c>
    800026ae:	05a7c503          	lbu	a0,90(a5)
    800026b2:	0ac57163          	bleu	a2,a0,80002754 <OSMutexPend+0x11c>
    800026b6:	05c74883          	lbu	a7,92(a4)
    800026ba:	0007f517          	auipc	a0,0x7f
    800026be:	8ae50513          	addi	a0,a0,-1874 # 80080f68 <OSRdyTbl>
    800026c2:	05d74603          	lbu	a2,93(a4)
    800026c6:	01150333          	add	t1,a0,a7
    800026ca:	00034803          	lbu	a6,0(t1)
    800026ce:	00c87e33          	and	t3,a6,a2
    800026d2:	160e0163          	beqz	t3,80002834 <OSMutexPend+0x1fc>
    800026d6:	fff64613          	not	a2,a2
    800026da:	00c87633          	and	a2,a6,a2
    800026de:	00c30023          	sb	a2,0(t1)
    800026e2:	0007f897          	auipc	a7,0x7f
    800026e6:	87e8c883          	lbu	a7,-1922(a7) # 80080f60 <OSRdyGrp>
    800026ea:	e619                	bnez	a2,800026f8 <OSMutexPend+0xc0>
    800026ec:	05e74603          	lbu	a2,94(a4)
    800026f0:	fff64613          	not	a2,a2
    800026f4:	00c8f8b3          	and	a7,a7,a2
    800026f8:	0036de93          	srli	t4,a3,0x3
    800026fc:	000e881b          	sext.w	a6,t4
    80002700:	9542                	add	a0,a0,a6
    80002702:	0076fe13          	andi	t3,a3,7
    80002706:	4605                	li	a2,1
    80002708:	00054303          	lbu	t1,0(a0)
    8000270c:	01061833          	sll	a6,a2,a6
    80002710:	01c61633          	sll	a2,a2,t3
    80002714:	0ff67613          	andi	a2,a2,255
    80002718:	0ff87813          	andi	a6,a6,255
    8000271c:	00666333          	or	t1,a2,t1
    80002720:	0108e8b3          	or	a7,a7,a6
    80002724:	04c70ea3          	sb	a2,93(a4)
    80002728:	04b70d23          	sb	a1,90(a4)
    8000272c:	05d70e23          	sb	t4,92(a4)
    80002730:	05c70da3          	sb	t3,91(a4)
    80002734:	05070f23          	sb	a6,94(a4)
    80002738:	0007f617          	auipc	a2,0x7f
    8000273c:	83160423          	sb	a7,-2008(a2) # 80080f60 <OSRdyGrp>
    80002740:	00650023          	sb	t1,0(a0)
    80002744:	00369613          	slli	a2,a3,0x3
    80002748:	00080697          	auipc	a3,0x80
    8000274c:	e5068693          	addi	a3,a3,-432 # 80082598 <OSTCBPrioTbl>
    80002750:	96b2                	add	a3,a3,a2
    80002752:	e298                	sd	a4,0(a3)
    80002754:	0587c703          	lbu	a4,88(a5)
    80002758:	04078ca3          	sb	zero,89(a5)
    8000275c:	0527aa23          	sw	s2,84(a5)
    80002760:	01076713          	ori	a4,a4,16
    80002764:	04e78c23          	sb	a4,88(a5)
    80002768:	8522                	mv	a0,s0
    8000276a:	a58fe0ef          	jal	ra,800009c2 <OS_EventTaskWait>
    8000276e:	8552                	mv	a0,s4
    80002770:	79a020ef          	jal	ra,80004f0a <OS_CPU_SR_Restore>
    80002774:	bf6fe0ef          	jal	ra,80000b6a <OS_Sched>
    80002778:	788020ef          	jal	ra,80004f00 <OS_CPU_SR_Save>
    8000277c:	0009b783          	ld	a5,0(s3)
    80002780:	0597c703          	lbu	a4,89(a5)
    80002784:	c345                	beqz	a4,80002824 <OSMutexPend+0x1ec>
    80002786:	4689                	li	a3,2
    80002788:	06d71d63          	bne	a4,a3,80002802 <OSMutexPend+0x1ca>
    8000278c:	47b9                	li	a5,14
    8000278e:	00f48023          	sb	a5,0(s1)
    80002792:	0009b783          	ld	a5,0(s3)
    80002796:	04079c23          	sh	zero,88(a5)
    8000279a:	0207b823          	sd	zero,48(a5)
    8000279e:	0207bc23          	sd	zero,56(a5)
    800027a2:	7402                	ld	s0,32(sp)
    800027a4:	70a2                	ld	ra,40(sp)
    800027a6:	64e2                	ld	s1,24(sp)
    800027a8:	6942                	ld	s2,16(sp)
    800027aa:	69a2                	ld	s3,8(sp)
    800027ac:	6a02                	ld	s4,0(sp)
    800027ae:	6145                	addi	sp,sp,48
    800027b0:	75a0206f          	j	80004f0a <OS_CPU_SR_Restore>
    800027b4:	4789                	li	a5,2
    800027b6:	00f60023          	sb	a5,0(a2)
    800027ba:	8082                	ret
    800027bc:	0007f717          	auipc	a4,0x7f
    800027c0:	bc470713          	addi	a4,a4,-1084 # 80081380 <OSTCBCur>
    800027c4:	f007f793          	andi	a5,a5,-256
    800027c8:	6318                	ld	a4,0(a4)
    800027ca:	17c2                	slli	a5,a5,0x30
    800027cc:	93c1                	srli	a5,a5,0x30
    800027ce:	00f41823          	sh	a5,16(s0)
    800027d2:	05a74603          	lbu	a2,90(a4)
    800027d6:	e418                	sd	a4,8(s0)
    800027d8:	8fd1                	or	a5,a5,a2
    800027da:	00f41823          	sh	a5,16(s0)
    800027de:	05a74783          	lbu	a5,90(a4)
    800027e2:	04f6e463          	bltu	a3,a5,8000282a <OSMutexPend+0x1f2>
    800027e6:	724020ef          	jal	ra,80004f0a <OS_CPU_SR_Restore>
    800027ea:	07800793          	li	a5,120
    800027ee:	00f48023          	sb	a5,0(s1)
    800027f2:	70a2                	ld	ra,40(sp)
    800027f4:	7402                	ld	s0,32(sp)
    800027f6:	64e2                	ld	s1,24(sp)
    800027f8:	6942                	ld	s2,16(sp)
    800027fa:	69a2                	ld	s3,8(sp)
    800027fc:	6a02                	ld	s4,0(sp)
    800027fe:	6145                	addi	sp,sp,48
    80002800:	8082                	ret
    80002802:	05c7c683          	lbu	a3,92(a5)
    80002806:	05d7c703          	lbu	a4,93(a5)
    8000280a:	96a2                	add	a3,a3,s0
    8000280c:	0136c603          	lbu	a2,19(a3)
    80002810:	fff74713          	not	a4,a4
    80002814:	8f71                	and	a4,a4,a2
    80002816:	00e689a3          	sb	a4,19(a3)
    8000281a:	cb59                	beqz	a4,800028b0 <OSMutexPend+0x278>
    8000281c:	47a9                	li	a5,10
    8000281e:	00f48023          	sb	a5,0(s1)
    80002822:	bf85                	j	80002792 <OSMutexPend+0x15a>
    80002824:	00048023          	sb	zero,0(s1)
    80002828:	b7ad                	j	80002792 <OSMutexPend+0x15a>
    8000282a:	6e0020ef          	jal	ra,80004f0a <OS_CPU_SR_Restore>
    8000282e:	00048023          	sb	zero,0(s1)
    80002832:	b7c1                	j	800027f2 <OSMutexPend+0x1ba>
    80002834:	7b08                	ld	a0,48(a4)
    80002836:	c559                	beqz	a0,800028c4 <OSMutexPend+0x28c>
    80002838:	98aa                	add	a7,a7,a0
    8000283a:	0138c803          	lbu	a6,19(a7)
    8000283e:	fff64613          	not	a2,a2
    80002842:	01067633          	and	a2,a2,a6
    80002846:	00c889a3          	sb	a2,19(a7)
    8000284a:	ea19                	bnez	a2,80002860 <OSMutexPend+0x228>
    8000284c:	05e74603          	lbu	a2,94(a4)
    80002850:	01254803          	lbu	a6,18(a0)
    80002854:	fff64613          	not	a2,a2
    80002858:	01067633          	and	a2,a2,a6
    8000285c:	00c50923          	sb	a2,18(a0)
    80002860:	0036d313          	srli	t1,a3,0x3
    80002864:	4805                	li	a6,1
    80002866:	0076f893          	andi	a7,a3,7
    8000286a:	00681533          	sll	a0,a6,t1
    8000286e:	7b10                	ld	a2,48(a4)
    80002870:	0ff57513          	andi	a0,a0,255
    80002874:	01181833          	sll	a6,a6,a7
    80002878:	04b70d23          	sb	a1,90(a4)
    8000287c:	04670e23          	sb	t1,92(a4)
    80002880:	05170da3          	sb	a7,91(a4)
    80002884:	04a70f23          	sb	a0,94(a4)
    80002888:	05070ea3          	sb	a6,93(a4)
    8000288c:	ea060ce3          	beqz	a2,80002744 <OSMutexPend+0x10c>
    80002890:	01264583          	lbu	a1,18(a2)
    80002894:	8d4d                	or	a0,a0,a1
    80002896:	00a60923          	sb	a0,18(a2)
    8000289a:	05c74583          	lbu	a1,92(a4)
    8000289e:	05d74503          	lbu	a0,93(a4)
    800028a2:	962e                	add	a2,a2,a1
    800028a4:	01364583          	lbu	a1,19(a2)
    800028a8:	8dc9                	or	a1,a1,a0
    800028aa:	00b609a3          	sb	a1,19(a2)
    800028ae:	bd59                	j	80002744 <OSMutexPend+0x10c>
    800028b0:	05e7c783          	lbu	a5,94(a5)
    800028b4:	01244703          	lbu	a4,18(s0)
    800028b8:	fff7c793          	not	a5,a5
    800028bc:	8ff9                	and	a5,a5,a4
    800028be:	00f40923          	sb	a5,18(s0)
    800028c2:	bfa9                	j	8000281c <OSMutexPend+0x1e4>
    800028c4:	0036d813          	srli	a6,a3,0x3
    800028c8:	0076f513          	andi	a0,a3,7
    800028cc:	4605                	li	a2,1
    800028ce:	010618b3          	sll	a7,a2,a6
    800028d2:	00a61633          	sll	a2,a2,a0
    800028d6:	04b70d23          	sb	a1,90(a4)
    800028da:	05070e23          	sb	a6,92(a4)
    800028de:	04a70da3          	sb	a0,91(a4)
    800028e2:	05170f23          	sb	a7,94(a4)
    800028e6:	04c70ea3          	sb	a2,93(a4)
    800028ea:	bda9                	j	80002744 <OSMutexPend+0x10c>

00000000800028ec <OSMutexPost>:
    800028ec:	7139                	addi	sp,sp,-64
    800028ee:	f822                	sd	s0,48(sp)
    800028f0:	fc06                	sd	ra,56(sp)
    800028f2:	f426                	sd	s1,40(sp)
    800028f4:	f04a                	sd	s2,32(sp)
    800028f6:	ec4e                	sd	s3,24(sp)
    800028f8:	e852                	sd	s4,16(sp)
    800028fa:	e456                	sd	s5,8(sp)
    800028fc:	0007f417          	auipc	s0,0x7f
    80002900:	a7c44403          	lbu	s0,-1412(s0) # 80081378 <OSIntNesting>
    80002904:	e00d                	bnez	s0,80002926 <OSMutexPost+0x3a>
    80002906:	00054703          	lbu	a4,0(a0)
    8000290a:	4791                	li	a5,4
    8000290c:	00f70f63          	beq	a4,a5,8000292a <OSMutexPost+0x3e>
    80002910:	4405                	li	s0,1
    80002912:	8522                	mv	a0,s0
    80002914:	70e2                	ld	ra,56(sp)
    80002916:	7442                	ld	s0,48(sp)
    80002918:	74a2                	ld	s1,40(sp)
    8000291a:	7902                	ld	s2,32(sp)
    8000291c:	69e2                	ld	s3,24(sp)
    8000291e:	6a42                	ld	s4,16(sp)
    80002920:	6aa2                	ld	s5,8(sp)
    80002922:	6121                	addi	sp,sp,64
    80002924:	8082                	ret
    80002926:	4415                	li	s0,5
    80002928:	b7ed                	j	80002912 <OSMutexPost+0x26>
    8000292a:	84aa                	mv	s1,a0
    8000292c:	5d4020ef          	jal	ra,80004f00 <OS_CPU_SR_Save>
    80002930:	0007f717          	auipc	a4,0x7f
    80002934:	a5070713          	addi	a4,a4,-1456 # 80081380 <OSTCBCur>
    80002938:	649c                	ld	a5,8(s1)
    8000293a:	6318                	ld	a4,0(a4)
    8000293c:	8a2a                	mv	s4,a0
    8000293e:	06e79463          	bne	a5,a4,800029a6 <OSMutexPost+0xba>
    80002942:	0104d583          	lhu	a1,16(s1)
    80002946:	05a7c703          	lbu	a4,90(a5)
    8000294a:	0085d913          	srli	s2,a1,0x8
    8000294e:	0ff97a93          	andi	s5,s2,255
    80002952:	09570363          	beq	a4,s5,800029d8 <OSMutexPost+0xec>
    80002956:	00080997          	auipc	s3,0x80
    8000295a:	c4298993          	addi	s3,s3,-958 # 80082598 <OSTCBPrioTbl>
    8000295e:	090e                	slli	s2,s2,0x3
    80002960:	4785                	li	a5,1
    80002962:	994e                	add	s2,s2,s3
    80002964:	00f93023          	sd	a5,0(s2)
    80002968:	0124c783          	lbu	a5,18(s1)
    8000296c:	c3b1                	beqz	a5,800029b0 <OSMutexPost+0xc4>
    8000296e:	4681                	li	a3,0
    80002970:	4641                	li	a2,16
    80002972:	4581                	li	a1,0
    80002974:	8526                	mv	a0,s1
    80002976:	f4bfd0ef          	jal	ra,800008c0 <OS_EventTaskRdy>
    8000297a:	0104d783          	lhu	a5,16(s1)
    8000297e:	0005071b          	sext.w	a4,a0
    80002982:	070e                	slli	a4,a4,0x3
    80002984:	f007f793          	andi	a5,a5,-256
    80002988:	8fc9                	or	a5,a5,a0
    8000298a:	00f49823          	sh	a5,16(s1)
    8000298e:	99ba                	add	s3,s3,a4
    80002990:	0009b783          	ld	a5,0(s3)
    80002994:	e49c                	sd	a5,8(s1)
    80002996:	02aaf963          	bleu	a0,s5,800029c8 <OSMutexPost+0xdc>
    8000299a:	8552                	mv	a0,s4
    8000299c:	56e020ef          	jal	ra,80004f0a <OS_CPU_SR_Restore>
    800029a0:	9cafe0ef          	jal	ra,80000b6a <OS_Sched>
    800029a4:	b7bd                	j	80002912 <OSMutexPost+0x26>
    800029a6:	564020ef          	jal	ra,80004f0a <OS_CPU_SR_Restore>
    800029aa:	06400413          	li	s0,100
    800029ae:	b795                	j	80002912 <OSMutexPost+0x26>
    800029b0:	0104d783          	lhu	a5,16(s1)
    800029b4:	0004b423          	sd	zero,8(s1)
    800029b8:	8552                	mv	a0,s4
    800029ba:	0ff7e793          	ori	a5,a5,255
    800029be:	00f49823          	sh	a5,16(s1)
    800029c2:	548020ef          	jal	ra,80004f0a <OS_CPU_SR_Restore>
    800029c6:	b7b1                	j	80002912 <OSMutexPost+0x26>
    800029c8:	8552                	mv	a0,s4
    800029ca:	540020ef          	jal	ra,80004f0a <OS_CPU_SR_Restore>
    800029ce:	07800413          	li	s0,120
    800029d2:	998fe0ef          	jal	ra,80000b6a <OS_Sched>
    800029d6:	bf35                	j	80002912 <OSMutexPost+0x26>
    800029d8:	0ff5f593          	andi	a1,a1,255
    800029dc:	853e                	mv	a0,a5
    800029de:	957fd0ef          	jal	ra,80000334 <OSMutex_RdyAtPrio>
    800029e2:	bf95                	j	80002956 <OSMutexPost+0x6a>

00000000800029e4 <OSMutexQuery>:
    800029e4:	1101                	addi	sp,sp,-32
    800029e6:	e426                	sd	s1,8(sp)
    800029e8:	ec06                	sd	ra,24(sp)
    800029ea:	e822                	sd	s0,16(sp)
    800029ec:	e04a                	sd	s2,0(sp)
    800029ee:	0007f497          	auipc	s1,0x7f
    800029f2:	98a4c483          	lbu	s1,-1654(s1) # 80081378 <OSIntNesting>
    800029f6:	ec91                	bnez	s1,80002a12 <OSMutexQuery+0x2e>
    800029f8:	00054703          	lbu	a4,0(a0)
    800029fc:	4791                	li	a5,4
    800029fe:	02f70263          	beq	a4,a5,80002a22 <OSMutexQuery+0x3e>
    80002a02:	60e2                	ld	ra,24(sp)
    80002a04:	6442                	ld	s0,16(sp)
    80002a06:	4485                	li	s1,1
    80002a08:	8526                	mv	a0,s1
    80002a0a:	6902                	ld	s2,0(sp)
    80002a0c:	64a2                	ld	s1,8(sp)
    80002a0e:	6105                	addi	sp,sp,32
    80002a10:	8082                	ret
    80002a12:	60e2                	ld	ra,24(sp)
    80002a14:	6442                	ld	s0,16(sp)
    80002a16:	4499                	li	s1,6
    80002a18:	8526                	mv	a0,s1
    80002a1a:	6902                	ld	s2,0(sp)
    80002a1c:	64a2                	ld	s1,8(sp)
    80002a1e:	6105                	addi	sp,sp,32
    80002a20:	8082                	ret
    80002a22:	892e                	mv	s2,a1
    80002a24:	842a                	mv	s0,a0
    80002a26:	4da020ef          	jal	ra,80004f00 <OS_CPU_SR_Save>
    80002a2a:	01045783          	lhu	a5,16(s0)
    80002a2e:	0ff00713          	li	a4,255
    80002a32:	0087d79b          	srliw	a5,a5,0x8
    80002a36:	00f905a3          	sb	a5,11(s2)
    80002a3a:	01044783          	lbu	a5,16(s0)
    80002a3e:	00f90523          	sb	a5,10(s2)
    80002a42:	02e78e63          	beq	a5,a4,80002a7e <OSMutexQuery+0x9a>
    80002a46:	000904a3          	sb	zero,9(s2)
    80002a4a:	01244703          	lbu	a4,18(s0)
    80002a4e:	01340793          	addi	a5,s0,19
    80002a52:	86ca                	mv	a3,s2
    80002a54:	00e90423          	sb	a4,8(s2)
    80002a58:	01b40713          	addi	a4,s0,27
    80002a5c:	0785                	addi	a5,a5,1
    80002a5e:	fff7c603          	lbu	a2,-1(a5)
    80002a62:	0685                	addi	a3,a3,1
    80002a64:	fec68fa3          	sb	a2,-1(a3)
    80002a68:	fef71ae3          	bne	a4,a5,80002a5c <OSMutexQuery+0x78>
    80002a6c:	49e020ef          	jal	ra,80004f0a <OS_CPU_SR_Restore>
    80002a70:	60e2                	ld	ra,24(sp)
    80002a72:	6442                	ld	s0,16(sp)
    80002a74:	8526                	mv	a0,s1
    80002a76:	6902                	ld	s2,0(sp)
    80002a78:	64a2                	ld	s1,8(sp)
    80002a7a:	6105                	addi	sp,sp,32
    80002a7c:	8082                	ret
    80002a7e:	4785                	li	a5,1
    80002a80:	00f904a3          	sb	a5,9(s2)
    80002a84:	b7d9                	j	80002a4a <OSMutexQuery+0x66>

0000000080002a86 <OSQAccept>:
    80002a86:	1101                	addi	sp,sp,-32
    80002a88:	ec06                	sd	ra,24(sp)
    80002a8a:	e822                	sd	s0,16(sp)
    80002a8c:	e426                	sd	s1,8(sp)
    80002a8e:	00054703          	lbu	a4,0(a0)
    80002a92:	4789                	li	a5,2
    80002a94:	04f71463          	bne	a4,a5,80002adc <OSQAccept+0x56>
    80002a98:	842a                	mv	s0,a0
    80002a9a:	84ae                	mv	s1,a1
    80002a9c:	464020ef          	jal	ra,80004f00 <OS_CPU_SR_Save>
    80002aa0:	641c                	ld	a5,8(s0)
    80002aa2:	02a7d703          	lhu	a4,42(a5)
    80002aa6:	ef09                	bnez	a4,80002ac0 <OSQAccept+0x3a>
    80002aa8:	47fd                	li	a5,31
    80002aaa:	00f48023          	sb	a5,0(s1)
    80002aae:	4401                	li	s0,0
    80002ab0:	45a020ef          	jal	ra,80004f0a <OS_CPU_SR_Restore>
    80002ab4:	8522                	mv	a0,s0
    80002ab6:	60e2                	ld	ra,24(sp)
    80002ab8:	6442                	ld	s0,16(sp)
    80002aba:	64a2                	ld	s1,8(sp)
    80002abc:	6105                	addi	sp,sp,32
    80002abe:	8082                	ret
    80002ac0:	7390                	ld	a2,32(a5)
    80002ac2:	6b8c                	ld	a1,16(a5)
    80002ac4:	377d                	addiw	a4,a4,-1
    80002ac6:	00860693          	addi	a3,a2,8
    80002aca:	f394                	sd	a3,32(a5)
    80002acc:	6200                	ld	s0,0(a2)
    80002ace:	02e79523          	sh	a4,42(a5)
    80002ad2:	00b68f63          	beq	a3,a1,80002af0 <OSQAccept+0x6a>
    80002ad6:	00048023          	sb	zero,0(s1)
    80002ada:	bfd9                	j	80002ab0 <OSQAccept+0x2a>
    80002adc:	4785                	li	a5,1
    80002ade:	00f58023          	sb	a5,0(a1)
    80002ae2:	4401                	li	s0,0
    80002ae4:	8522                	mv	a0,s0
    80002ae6:	60e2                	ld	ra,24(sp)
    80002ae8:	6442                	ld	s0,16(sp)
    80002aea:	64a2                	ld	s1,8(sp)
    80002aec:	6105                	addi	sp,sp,32
    80002aee:	8082                	ret
    80002af0:	6798                	ld	a4,8(a5)
    80002af2:	f398                	sd	a4,32(a5)
    80002af4:	00048023          	sb	zero,0(s1)
    80002af8:	bf65                	j	80002ab0 <OSQAccept+0x2a>

0000000080002afa <OSQCreate>:
    80002afa:	7179                	addi	sp,sp,-48
    80002afc:	f406                	sd	ra,40(sp)
    80002afe:	f022                	sd	s0,32(sp)
    80002b00:	ec26                	sd	s1,24(sp)
    80002b02:	e84a                	sd	s2,16(sp)
    80002b04:	e44e                	sd	s3,8(sp)
    80002b06:	e052                	sd	s4,0(sp)
    80002b08:	0007f797          	auipc	a5,0x7f
    80002b0c:	8707c783          	lbu	a5,-1936(a5) # 80081378 <OSIntNesting>
    80002b10:	ebd9                	bnez	a5,80002ba6 <OSQCreate+0xac>
    80002b12:	0007fa17          	auipc	s4,0x7f
    80002b16:	85ea0a13          	addi	s4,s4,-1954 # 80081370 <OSEventFreeList>
    80002b1a:	89ae                	mv	s3,a1
    80002b1c:	892a                	mv	s2,a0
    80002b1e:	3e2020ef          	jal	ra,80004f00 <OS_CPU_SR_Save>
    80002b22:	000a3403          	ld	s0,0(s4)
    80002b26:	cc2d                	beqz	s0,80002ba0 <OSQCreate+0xa6>
    80002b28:	641c                	ld	a5,8(s0)
    80002b2a:	0007f717          	auipc	a4,0x7f
    80002b2e:	84f73323          	sd	a5,-1978(a4) # 80081370 <OSEventFreeList>
    80002b32:	3d8020ef          	jal	ra,80004f0a <OS_CPU_SR_Restore>
    80002b36:	3ca020ef          	jal	ra,80004f00 <OS_CPU_SR_Save>
    80002b3a:	0007e797          	auipc	a5,0x7e
    80002b3e:	41e78793          	addi	a5,a5,1054 # 80080f58 <OSQFreeList>
    80002b42:	6384                	ld	s1,0(a5)
    80002b44:	c0bd                	beqz	s1,80002baa <OSQCreate+0xb0>
    80002b46:	609c                	ld	a5,0(s1)
    80002b48:	0007e717          	auipc	a4,0x7e
    80002b4c:	40f73823          	sd	a5,1040(a4) # 80080f58 <OSQFreeList>
    80002b50:	3ba020ef          	jal	ra,80004f0a <OS_CPU_SR_Restore>
    80002b54:	00399793          	slli	a5,s3,0x3
    80002b58:	97ca                	add	a5,a5,s2
    80002b5a:	e89c                	sd	a5,16(s1)
    80002b5c:	0124b423          	sd	s2,8(s1)
    80002b60:	0124bc23          	sd	s2,24(s1)
    80002b64:	0324b023          	sd	s2,32(s1)
    80002b68:	03349423          	sh	s3,40(s1)
    80002b6c:	02049523          	sh	zero,42(s1)
    80002b70:	4789                	li	a5,2
    80002b72:	00f40023          	sb	a5,0(s0)
    80002b76:	0007d797          	auipc	a5,0x7d
    80002b7a:	6ea78793          	addi	a5,a5,1770 # 80080260 <OSUnMapTbl+0x260>
    80002b7e:	e404                	sd	s1,8(s0)
    80002b80:	f01c                	sd	a5,32(s0)
    80002b82:	00043823          	sd	zero,16(s0)
    80002b86:	00041c23          	sh	zero,24(s0)
    80002b8a:	00040d23          	sb	zero,26(s0)
    80002b8e:	8522                	mv	a0,s0
    80002b90:	70a2                	ld	ra,40(sp)
    80002b92:	7402                	ld	s0,32(sp)
    80002b94:	64e2                	ld	s1,24(sp)
    80002b96:	6942                	ld	s2,16(sp)
    80002b98:	69a2                	ld	s3,8(sp)
    80002b9a:	6a02                	ld	s4,0(sp)
    80002b9c:	6145                	addi	sp,sp,48
    80002b9e:	8082                	ret
    80002ba0:	36a020ef          	jal	ra,80004f0a <OS_CPU_SR_Restore>
    80002ba4:	b7ed                	j	80002b8e <OSQCreate+0x94>
    80002ba6:	4401                	li	s0,0
    80002ba8:	b7dd                	j	80002b8e <OSQCreate+0x94>
    80002baa:	000a3783          	ld	a5,0(s4)
    80002bae:	0007e717          	auipc	a4,0x7e
    80002bb2:	7c873123          	sd	s0,1986(a4) # 80081370 <OSEventFreeList>
    80002bb6:	e41c                	sd	a5,8(s0)
    80002bb8:	352020ef          	jal	ra,80004f0a <OS_CPU_SR_Restore>
    80002bbc:	4401                	li	s0,0
    80002bbe:	bfc1                	j	80002b8e <OSQCreate+0x94>

0000000080002bc0 <OSQDel>:
    80002bc0:	00054703          	lbu	a4,0(a0)
    80002bc4:	4789                	li	a5,2
    80002bc6:	00f70663          	beq	a4,a5,80002bd2 <OSQDel+0x12>
    80002bca:	4785                	li	a5,1
    80002bcc:	00f60023          	sb	a5,0(a2)
    80002bd0:	8082                	ret
    80002bd2:	0007e797          	auipc	a5,0x7e
    80002bd6:	7a67c783          	lbu	a5,1958(a5) # 80081378 <OSIntNesting>
    80002bda:	c789                	beqz	a5,80002be4 <OSQDel+0x24>
    80002bdc:	47bd                	li	a5,15
    80002bde:	00f60023          	sb	a5,0(a2)
    80002be2:	8082                	ret
    80002be4:	7179                	addi	sp,sp,-48
    80002be6:	f022                	sd	s0,32(sp)
    80002be8:	ec26                	sd	s1,24(sp)
    80002bea:	e84a                	sd	s2,16(sp)
    80002bec:	e44e                	sd	s3,8(sp)
    80002bee:	842a                	mv	s0,a0
    80002bf0:	f406                	sd	ra,40(sp)
    80002bf2:	84b2                	mv	s1,a2
    80002bf4:	892e                	mv	s2,a1
    80002bf6:	30a020ef          	jal	ra,80004f00 <OS_CPU_SR_Save>
    80002bfa:	01244783          	lbu	a5,18(s0)
    80002bfe:	89aa                	mv	s3,a0
    80002c00:	c38d                	beqz	a5,80002c22 <OSQDel+0x62>
    80002c02:	08091563          	bnez	s2,80002c8c <OSQDel+0xcc>
    80002c06:	304020ef          	jal	ra,80004f0a <OS_CPU_SR_Restore>
    80002c0a:	04900793          	li	a5,73
    80002c0e:	00f48023          	sb	a5,0(s1)
    80002c12:	8522                	mv	a0,s0
    80002c14:	70a2                	ld	ra,40(sp)
    80002c16:	7402                	ld	s0,32(sp)
    80002c18:	64e2                	ld	s1,24(sp)
    80002c1a:	6942                	ld	s2,16(sp)
    80002c1c:	69a2                	ld	s3,8(sp)
    80002c1e:	6145                	addi	sp,sp,48
    80002c20:	8082                	ret
    80002c22:	08090663          	beqz	s2,80002cae <OSQDel+0xee>
    80002c26:	4785                	li	a5,1
    80002c28:	04f91a63          	bne	s2,a5,80002c7c <OSQDel+0xbc>
    80002c2c:	4901                	li	s2,0
    80002c2e:	0007e717          	auipc	a4,0x7e
    80002c32:	32a70713          	addi	a4,a4,810 # 80080f58 <OSQFreeList>
    80002c36:	641c                	ld	a5,8(s0)
    80002c38:	6318                	ld	a4,0(a4)
    80002c3a:	0007d697          	auipc	a3,0x7d
    80002c3e:	62668693          	addi	a3,a3,1574 # 80080260 <OSUnMapTbl+0x260>
    80002c42:	f014                	sd	a3,32(s0)
    80002c44:	e398                	sd	a4,0(a5)
    80002c46:	0007e717          	auipc	a4,0x7e
    80002c4a:	30f73923          	sd	a5,786(a4) # 80080f58 <OSQFreeList>
    80002c4e:	00040023          	sb	zero,0(s0)
    80002c52:	0007e797          	auipc	a5,0x7e
    80002c56:	71e78793          	addi	a5,a5,1822 # 80081370 <OSEventFreeList>
    80002c5a:	639c                	ld	a5,0(a5)
    80002c5c:	00041823          	sh	zero,16(s0)
    80002c60:	854e                	mv	a0,s3
    80002c62:	e41c                	sd	a5,8(s0)
    80002c64:	0007e797          	auipc	a5,0x7e
    80002c68:	7087b623          	sd	s0,1804(a5) # 80081370 <OSEventFreeList>
    80002c6c:	29e020ef          	jal	ra,80004f0a <OS_CPU_SR_Restore>
    80002c70:	02091c63          	bnez	s2,80002ca8 <OSQDel+0xe8>
    80002c74:	00048023          	sb	zero,0(s1)
    80002c78:	4501                	li	a0,0
    80002c7a:	bf69                	j	80002c14 <OSQDel+0x54>
    80002c7c:	854e                	mv	a0,s3
    80002c7e:	28c020ef          	jal	ra,80004f0a <OS_CPU_SR_Restore>
    80002c82:	479d                	li	a5,7
    80002c84:	00f48023          	sb	a5,0(s1)
    80002c88:	8522                	mv	a0,s0
    80002c8a:	b769                	j	80002c14 <OSQDel+0x54>
    80002c8c:	4785                	li	a5,1
    80002c8e:	fef917e3          	bne	s2,a5,80002c7c <OSQDel+0xbc>
    80002c92:	4905                	li	s2,1
    80002c94:	4681                	li	a3,0
    80002c96:	4611                	li	a2,4
    80002c98:	4581                	li	a1,0
    80002c9a:	8522                	mv	a0,s0
    80002c9c:	c25fd0ef          	jal	ra,800008c0 <OS_EventTaskRdy>
    80002ca0:	01244783          	lbu	a5,18(s0)
    80002ca4:	fbe5                	bnez	a5,80002c94 <OSQDel+0xd4>
    80002ca6:	b761                	j	80002c2e <OSQDel+0x6e>
    80002ca8:	ec3fd0ef          	jal	ra,80000b6a <OS_Sched>
    80002cac:	b7e1                	j	80002c74 <OSQDel+0xb4>
    80002cae:	0007e717          	auipc	a4,0x7e
    80002cb2:	2aa70713          	addi	a4,a4,682 # 80080f58 <OSQFreeList>
    80002cb6:	641c                	ld	a5,8(s0)
    80002cb8:	6318                	ld	a4,0(a4)
    80002cba:	0007d697          	auipc	a3,0x7d
    80002cbe:	5a668693          	addi	a3,a3,1446 # 80080260 <OSUnMapTbl+0x260>
    80002cc2:	f014                	sd	a3,32(s0)
    80002cc4:	e398                	sd	a4,0(a5)
    80002cc6:	0007e717          	auipc	a4,0x7e
    80002cca:	28f73923          	sd	a5,658(a4) # 80080f58 <OSQFreeList>
    80002cce:	00040023          	sb	zero,0(s0)
    80002cd2:	0007e797          	auipc	a5,0x7e
    80002cd6:	69e78793          	addi	a5,a5,1694 # 80081370 <OSEventFreeList>
    80002cda:	639c                	ld	a5,0(a5)
    80002cdc:	00041823          	sh	zero,16(s0)
    80002ce0:	0007e717          	auipc	a4,0x7e
    80002ce4:	68873823          	sd	s0,1680(a4) # 80081370 <OSEventFreeList>
    80002ce8:	e41c                	sd	a5,8(s0)
    80002cea:	220020ef          	jal	ra,80004f0a <OS_CPU_SR_Restore>
    80002cee:	4501                	li	a0,0
    80002cf0:	00048023          	sb	zero,0(s1)
    80002cf4:	b705                	j	80002c14 <OSQDel+0x54>

0000000080002cf6 <OSQFlush>:
    80002cf6:	1141                	addi	sp,sp,-16
    80002cf8:	e406                	sd	ra,8(sp)
    80002cfa:	e022                	sd	s0,0(sp)
    80002cfc:	842a                	mv	s0,a0
    80002cfe:	202020ef          	jal	ra,80004f00 <OS_CPU_SR_Save>
    80002d02:	641c                	ld	a5,8(s0)
    80002d04:	6798                	ld	a4,8(a5)
    80002d06:	02079523          	sh	zero,42(a5)
    80002d0a:	ef98                	sd	a4,24(a5)
    80002d0c:	f398                	sd	a4,32(a5)
    80002d0e:	1fc020ef          	jal	ra,80004f0a <OS_CPU_SR_Restore>
    80002d12:	60a2                	ld	ra,8(sp)
    80002d14:	6402                	ld	s0,0(sp)
    80002d16:	4501                	li	a0,0
    80002d18:	0141                	addi	sp,sp,16
    80002d1a:	8082                	ret

0000000080002d1c <OSQPend>:
    80002d1c:	7139                	addi	sp,sp,-64
    80002d1e:	fc06                	sd	ra,56(sp)
    80002d20:	f822                	sd	s0,48(sp)
    80002d22:	f426                	sd	s1,40(sp)
    80002d24:	f04a                	sd	s2,32(sp)
    80002d26:	ec4e                	sd	s3,24(sp)
    80002d28:	e852                	sd	s4,16(sp)
    80002d2a:	e456                	sd	s5,8(sp)
    80002d2c:	00054903          	lbu	s2,0(a0)
    80002d30:	4789                	li	a5,2
    80002d32:	0cf91763          	bne	s2,a5,80002e00 <OSQPend+0xe4>
    80002d36:	0007e797          	auipc	a5,0x7e
    80002d3a:	6427c783          	lbu	a5,1602(a5) # 80081378 <OSIntNesting>
    80002d3e:	ebf9                	bnez	a5,80002e14 <OSQPend+0xf8>
    80002d40:	0007d797          	auipc	a5,0x7d
    80002d44:	7087c783          	lbu	a5,1800(a5) # 80080448 <OSLockNesting>
    80002d48:	e3e9                	bnez	a5,80002e0a <OSQPend+0xee>
    80002d4a:	842a                	mv	s0,a0
    80002d4c:	89b2                	mv	s3,a2
    80002d4e:	84ae                	mv	s1,a1
    80002d50:	1b0020ef          	jal	ra,80004f00 <OS_CPU_SR_Save>
    80002d54:	641c                	ld	a5,8(s0)
    80002d56:	8a2a                	mv	s4,a0
    80002d58:	02a7d703          	lhu	a4,42(a5)
    80002d5c:	cf0d                	beqz	a4,80002d96 <OSQPend+0x7a>
    80002d5e:	7390                	ld	a2,32(a5)
    80002d60:	6b8c                	ld	a1,16(a5)
    80002d62:	377d                	addiw	a4,a4,-1
    80002d64:	00860693          	addi	a3,a2,8
    80002d68:	f394                	sd	a3,32(a5)
    80002d6a:	6200                	ld	s0,0(a2)
    80002d6c:	02e79523          	sh	a4,42(a5)
    80002d70:	00b69463          	bne	a3,a1,80002d78 <OSQPend+0x5c>
    80002d74:	6798                	ld	a4,8(a5)
    80002d76:	f398                	sd	a4,32(a5)
    80002d78:	8552                	mv	a0,s4
    80002d7a:	190020ef          	jal	ra,80004f0a <OS_CPU_SR_Restore>
    80002d7e:	00098023          	sb	zero,0(s3)
    80002d82:	8522                	mv	a0,s0
    80002d84:	70e2                	ld	ra,56(sp)
    80002d86:	7442                	ld	s0,48(sp)
    80002d88:	74a2                	ld	s1,40(sp)
    80002d8a:	7902                	ld	s2,32(sp)
    80002d8c:	69e2                	ld	s3,24(sp)
    80002d8e:	6a42                	ld	s4,16(sp)
    80002d90:	6aa2                	ld	s5,8(sp)
    80002d92:	6121                	addi	sp,sp,64
    80002d94:	8082                	ret
    80002d96:	0007ea97          	auipc	s5,0x7e
    80002d9a:	5eaa8a93          	addi	s5,s5,1514 # 80081380 <OSTCBCur>
    80002d9e:	000ab783          	ld	a5,0(s5)
    80002da2:	8522                	mv	a0,s0
    80002da4:	0587c703          	lbu	a4,88(a5)
    80002da8:	04078ca3          	sb	zero,89(a5)
    80002dac:	cbe4                	sw	s1,84(a5)
    80002dae:	00476713          	ori	a4,a4,4
    80002db2:	04e78c23          	sb	a4,88(a5)
    80002db6:	c0dfd0ef          	jal	ra,800009c2 <OS_EventTaskWait>
    80002dba:	8552                	mv	a0,s4
    80002dbc:	14e020ef          	jal	ra,80004f0a <OS_CPU_SR_Restore>
    80002dc0:	dabfd0ef          	jal	ra,80000b6a <OS_Sched>
    80002dc4:	13c020ef          	jal	ra,80004f00 <OS_CPU_SR_Save>
    80002dc8:	000ab783          	ld	a5,0(s5)
    80002dcc:	0597c703          	lbu	a4,89(a5)
    80002dd0:	c705                	beqz	a4,80002df8 <OSQPend+0xdc>
    80002dd2:	05271563          	bne	a4,s2,80002e1c <OSQPend+0x100>
    80002dd6:	47b9                	li	a5,14
    80002dd8:	00f98023          	sb	a5,0(s3)
    80002ddc:	4401                	li	s0,0
    80002dde:	000ab783          	ld	a5,0(s5)
    80002de2:	04079c23          	sh	zero,88(a5)
    80002de6:	0207b823          	sd	zero,48(a5)
    80002dea:	0207bc23          	sd	zero,56(a5)
    80002dee:	0407b023          	sd	zero,64(a5)
    80002df2:	118020ef          	jal	ra,80004f0a <OS_CPU_SR_Restore>
    80002df6:	b771                	j	80002d82 <OSQPend+0x66>
    80002df8:	63a0                	ld	s0,64(a5)
    80002dfa:	00098023          	sb	zero,0(s3)
    80002dfe:	b7c5                	j	80002dde <OSQPend+0xc2>
    80002e00:	4785                	li	a5,1
    80002e02:	00f60023          	sb	a5,0(a2)
    80002e06:	4401                	li	s0,0
    80002e08:	bfad                	j	80002d82 <OSQPend+0x66>
    80002e0a:	47b5                	li	a5,13
    80002e0c:	00f60023          	sb	a5,0(a2)
    80002e10:	4401                	li	s0,0
    80002e12:	bf85                	j	80002d82 <OSQPend+0x66>
    80002e14:	01260023          	sb	s2,0(a2)
    80002e18:	4401                	li	s0,0
    80002e1a:	b7a5                	j	80002d82 <OSQPend+0x66>
    80002e1c:	05c7c683          	lbu	a3,92(a5)
    80002e20:	05d7c703          	lbu	a4,93(a5)
    80002e24:	96a2                	add	a3,a3,s0
    80002e26:	0136c603          	lbu	a2,19(a3)
    80002e2a:	fff74713          	not	a4,a4
    80002e2e:	8f71                	and	a4,a4,a2
    80002e30:	00e689a3          	sb	a4,19(a3)
    80002e34:	c711                	beqz	a4,80002e40 <OSQPend+0x124>
    80002e36:	47a9                	li	a5,10
    80002e38:	00f98023          	sb	a5,0(s3)
    80002e3c:	4401                	li	s0,0
    80002e3e:	b745                	j	80002dde <OSQPend+0xc2>
    80002e40:	05e7c783          	lbu	a5,94(a5)
    80002e44:	01244703          	lbu	a4,18(s0)
    80002e48:	fff7c793          	not	a5,a5
    80002e4c:	8ff9                	and	a5,a5,a4
    80002e4e:	00f40923          	sb	a5,18(s0)
    80002e52:	b7d5                	j	80002e36 <OSQPend+0x11a>

0000000080002e54 <OSQPendAbort>:
    80002e54:	7179                	addi	sp,sp,-48
    80002e56:	f406                	sd	ra,40(sp)
    80002e58:	f022                	sd	s0,32(sp)
    80002e5a:	ec26                	sd	s1,24(sp)
    80002e5c:	e84a                	sd	s2,16(sp)
    80002e5e:	e44e                	sd	s3,8(sp)
    80002e60:	e052                	sd	s4,0(sp)
    80002e62:	00054703          	lbu	a4,0(a0)
    80002e66:	4789                	li	a5,2
    80002e68:	00f70f63          	beq	a4,a5,80002e86 <OSQPendAbort+0x32>
    80002e6c:	4785                	li	a5,1
    80002e6e:	00f60023          	sb	a5,0(a2)
    80002e72:	4401                	li	s0,0
    80002e74:	8522                	mv	a0,s0
    80002e76:	70a2                	ld	ra,40(sp)
    80002e78:	7402                	ld	s0,32(sp)
    80002e7a:	64e2                	ld	s1,24(sp)
    80002e7c:	6942                	ld	s2,16(sp)
    80002e7e:	69a2                	ld	s3,8(sp)
    80002e80:	6a02                	ld	s4,0(sp)
    80002e82:	6145                	addi	sp,sp,48
    80002e84:	8082                	ret
    80002e86:	84aa                	mv	s1,a0
    80002e88:	8932                	mv	s2,a2
    80002e8a:	89ae                	mv	s3,a1
    80002e8c:	074020ef          	jal	ra,80004f00 <OS_CPU_SR_Save>
    80002e90:	0124c783          	lbu	a5,18(s1)
    80002e94:	8a2a                	mv	s4,a0
    80002e96:	cb95                	beqz	a5,80002eca <OSQPendAbort+0x76>
    80002e98:	4785                	li	a5,1
    80002e9a:	4401                	li	s0,0
    80002e9c:	02f99d63          	bne	s3,a5,80002ed6 <OSQPendAbort+0x82>
    80002ea0:	4689                	li	a3,2
    80002ea2:	4611                	li	a2,4
    80002ea4:	4581                	li	a1,0
    80002ea6:	8526                	mv	a0,s1
    80002ea8:	a19fd0ef          	jal	ra,800008c0 <OS_EventTaskRdy>
    80002eac:	0124c783          	lbu	a5,18(s1)
    80002eb0:	2405                	addiw	s0,s0,1
    80002eb2:	0ff47413          	andi	s0,s0,255
    80002eb6:	f7ed                	bnez	a5,80002ea0 <OSQPendAbort+0x4c>
    80002eb8:	8552                	mv	a0,s4
    80002eba:	050020ef          	jal	ra,80004f0a <OS_CPU_SR_Restore>
    80002ebe:	cadfd0ef          	jal	ra,80000b6a <OS_Sched>
    80002ec2:	47b9                	li	a5,14
    80002ec4:	00f90023          	sb	a5,0(s2)
    80002ec8:	b775                	j	80002e74 <OSQPendAbort+0x20>
    80002eca:	040020ef          	jal	ra,80004f0a <OS_CPU_SR_Restore>
    80002ece:	4401                	li	s0,0
    80002ed0:	00090023          	sb	zero,0(s2)
    80002ed4:	b745                	j	80002e74 <OSQPendAbort+0x20>
    80002ed6:	4689                	li	a3,2
    80002ed8:	4611                	li	a2,4
    80002eda:	4581                	li	a1,0
    80002edc:	8526                	mv	a0,s1
    80002ede:	9e3fd0ef          	jal	ra,800008c0 <OS_EventTaskRdy>
    80002ee2:	4405                	li	s0,1
    80002ee4:	bfd1                	j	80002eb8 <OSQPendAbort+0x64>

0000000080002ee6 <OSQPost>:
    80002ee6:	00054703          	lbu	a4,0(a0)
    80002eea:	4789                	li	a5,2
    80002eec:	00f70463          	beq	a4,a5,80002ef4 <OSQPost+0xe>
    80002ef0:	4505                	li	a0,1
    80002ef2:	8082                	ret
    80002ef4:	1101                	addi	sp,sp,-32
    80002ef6:	e822                	sd	s0,16(sp)
    80002ef8:	e426                	sd	s1,8(sp)
    80002efa:	e04a                	sd	s2,0(sp)
    80002efc:	842a                	mv	s0,a0
    80002efe:	ec06                	sd	ra,24(sp)
    80002f00:	84ae                	mv	s1,a1
    80002f02:	7ff010ef          	jal	ra,80004f00 <OS_CPU_SR_Save>
    80002f06:	01244783          	lbu	a5,18(s0)
    80002f0a:	892a                	mv	s2,a0
    80002f0c:	e3a1                	bnez	a5,80002f4c <OSQPost+0x66>
    80002f0e:	641c                	ld	a5,8(s0)
    80002f10:	02a7d683          	lhu	a3,42(a5)
    80002f14:	0287d703          	lhu	a4,40(a5)
    80002f18:	04e6fa63          	bleu	a4,a3,80002f6c <OSQPost+0x86>
    80002f1c:	6f98                	ld	a4,24(a5)
    80002f1e:	00870693          	addi	a3,a4,8
    80002f22:	ef94                	sd	a3,24(a5)
    80002f24:	e304                	sd	s1,0(a4)
    80002f26:	02a7d703          	lhu	a4,42(a5)
    80002f2a:	6f90                	ld	a2,24(a5)
    80002f2c:	6b94                	ld	a3,16(a5)
    80002f2e:	2705                	addiw	a4,a4,1
    80002f30:	02e79523          	sh	a4,42(a5)
    80002f34:	02d60963          	beq	a2,a3,80002f66 <OSQPost+0x80>
    80002f38:	854a                	mv	a0,s2
    80002f3a:	7d1010ef          	jal	ra,80004f0a <OS_CPU_SR_Restore>
    80002f3e:	4501                	li	a0,0
    80002f40:	60e2                	ld	ra,24(sp)
    80002f42:	6442                	ld	s0,16(sp)
    80002f44:	64a2                	ld	s1,8(sp)
    80002f46:	6902                	ld	s2,0(sp)
    80002f48:	6105                	addi	sp,sp,32
    80002f4a:	8082                	ret
    80002f4c:	4681                	li	a3,0
    80002f4e:	4611                	li	a2,4
    80002f50:	85a6                	mv	a1,s1
    80002f52:	8522                	mv	a0,s0
    80002f54:	96dfd0ef          	jal	ra,800008c0 <OS_EventTaskRdy>
    80002f58:	854a                	mv	a0,s2
    80002f5a:	7b1010ef          	jal	ra,80004f0a <OS_CPU_SR_Restore>
    80002f5e:	c0dfd0ef          	jal	ra,80000b6a <OS_Sched>
    80002f62:	4501                	li	a0,0
    80002f64:	bff1                	j	80002f40 <OSQPost+0x5a>
    80002f66:	6798                	ld	a4,8(a5)
    80002f68:	ef98                	sd	a4,24(a5)
    80002f6a:	b7f9                	j	80002f38 <OSQPost+0x52>
    80002f6c:	79f010ef          	jal	ra,80004f0a <OS_CPU_SR_Restore>
    80002f70:	4579                	li	a0,30
    80002f72:	b7f9                	j	80002f40 <OSQPost+0x5a>

0000000080002f74 <OSQPostFront>:
    80002f74:	00054703          	lbu	a4,0(a0)
    80002f78:	4789                	li	a5,2
    80002f7a:	00f70463          	beq	a4,a5,80002f82 <OSQPostFront+0xe>
    80002f7e:	4505                	li	a0,1
    80002f80:	8082                	ret
    80002f82:	1101                	addi	sp,sp,-32
    80002f84:	e822                	sd	s0,16(sp)
    80002f86:	e426                	sd	s1,8(sp)
    80002f88:	e04a                	sd	s2,0(sp)
    80002f8a:	842a                	mv	s0,a0
    80002f8c:	ec06                	sd	ra,24(sp)
    80002f8e:	84ae                	mv	s1,a1
    80002f90:	771010ef          	jal	ra,80004f00 <OS_CPU_SR_Save>
    80002f94:	01244783          	lbu	a5,18(s0)
    80002f98:	892a                	mv	s2,a0
    80002f9a:	e3a1                	bnez	a5,80002fda <OSQPostFront+0x66>
    80002f9c:	641c                	ld	a5,8(s0)
    80002f9e:	02a7d683          	lhu	a3,42(a5)
    80002fa2:	0287d703          	lhu	a4,40(a5)
    80002fa6:	04e6f963          	bleu	a4,a3,80002ff8 <OSQPostFront+0x84>
    80002faa:	7398                	ld	a4,32(a5)
    80002fac:	6794                	ld	a3,8(a5)
    80002fae:	04d70363          	beq	a4,a3,80002ff4 <OSQPostFront+0x80>
    80002fb2:	ff870693          	addi	a3,a4,-8
    80002fb6:	f394                	sd	a3,32(a5)
    80002fb8:	fe973c23          	sd	s1,-8(a4)
    80002fbc:	02a7d703          	lhu	a4,42(a5)
    80002fc0:	854a                	mv	a0,s2
    80002fc2:	2705                	addiw	a4,a4,1
    80002fc4:	02e79523          	sh	a4,42(a5)
    80002fc8:	743010ef          	jal	ra,80004f0a <OS_CPU_SR_Restore>
    80002fcc:	4501                	li	a0,0
    80002fce:	60e2                	ld	ra,24(sp)
    80002fd0:	6442                	ld	s0,16(sp)
    80002fd2:	64a2                	ld	s1,8(sp)
    80002fd4:	6902                	ld	s2,0(sp)
    80002fd6:	6105                	addi	sp,sp,32
    80002fd8:	8082                	ret
    80002fda:	4681                	li	a3,0
    80002fdc:	4611                	li	a2,4
    80002fde:	85a6                	mv	a1,s1
    80002fe0:	8522                	mv	a0,s0
    80002fe2:	8dffd0ef          	jal	ra,800008c0 <OS_EventTaskRdy>
    80002fe6:	854a                	mv	a0,s2
    80002fe8:	723010ef          	jal	ra,80004f0a <OS_CPU_SR_Restore>
    80002fec:	b7ffd0ef          	jal	ra,80000b6a <OS_Sched>
    80002ff0:	4501                	li	a0,0
    80002ff2:	bff1                	j	80002fce <OSQPostFront+0x5a>
    80002ff4:	6b98                	ld	a4,16(a5)
    80002ff6:	bf75                	j	80002fb2 <OSQPostFront+0x3e>
    80002ff8:	713010ef          	jal	ra,80004f0a <OS_CPU_SR_Restore>
    80002ffc:	4579                	li	a0,30
    80002ffe:	bfc1                	j	80002fce <OSQPostFront+0x5a>

0000000080003000 <OSQPostOpt>:
    80003000:	7179                	addi	sp,sp,-48
    80003002:	f022                	sd	s0,32(sp)
    80003004:	f406                	sd	ra,40(sp)
    80003006:	ec26                	sd	s1,24(sp)
    80003008:	e84a                	sd	s2,16(sp)
    8000300a:	e44e                	sd	s3,8(sp)
    8000300c:	00054703          	lbu	a4,0(a0)
    80003010:	4789                	li	a5,2
    80003012:	4405                	li	s0,1
    80003014:	00f70a63          	beq	a4,a5,80003028 <OSQPostOpt+0x28>
    80003018:	8522                	mv	a0,s0
    8000301a:	70a2                	ld	ra,40(sp)
    8000301c:	7402                	ld	s0,32(sp)
    8000301e:	64e2                	ld	s1,24(sp)
    80003020:	6942                	ld	s2,16(sp)
    80003022:	69a2                	ld	s3,8(sp)
    80003024:	6145                	addi	sp,sp,48
    80003026:	8082                	ret
    80003028:	842a                	mv	s0,a0
    8000302a:	84b2                	mv	s1,a2
    8000302c:	892e                	mv	s2,a1
    8000302e:	6d3010ef          	jal	ra,80004f00 <OS_CPU_SR_Save>
    80003032:	01244783          	lbu	a5,18(s0)
    80003036:	89aa                	mv	s3,a0
    80003038:	c79d                	beqz	a5,80003066 <OSQPostOpt+0x66>
    8000303a:	0014f793          	andi	a5,s1,1
    8000303e:	cfa5                	beqz	a5,800030b6 <OSQPostOpt+0xb6>
    80003040:	4681                	li	a3,0
    80003042:	4611                	li	a2,4
    80003044:	85ca                	mv	a1,s2
    80003046:	8522                	mv	a0,s0
    80003048:	879fd0ef          	jal	ra,800008c0 <OS_EventTaskRdy>
    8000304c:	01244783          	lbu	a5,18(s0)
    80003050:	fbe5                	bnez	a5,80003040 <OSQPostOpt+0x40>
    80003052:	854e                	mv	a0,s3
    80003054:	6b7010ef          	jal	ra,80004f0a <OS_CPU_SR_Restore>
    80003058:	0044f613          	andi	a2,s1,4
    8000305c:	4401                	li	s0,0
    8000305e:	fe4d                	bnez	a2,80003018 <OSQPostOpt+0x18>
    80003060:	b0bfd0ef          	jal	ra,80000b6a <OS_Sched>
    80003064:	bf55                	j	80003018 <OSQPostOpt+0x18>
    80003066:	641c                	ld	a5,8(s0)
    80003068:	02a7d683          	lhu	a3,42(a5)
    8000306c:	0287d703          	lhu	a4,40(a5)
    80003070:	04e6fa63          	bleu	a4,a3,800030c4 <OSQPostOpt+0xc4>
    80003074:	0024f613          	andi	a2,s1,2
    80003078:	ca19                	beqz	a2,8000308e <OSQPostOpt+0x8e>
    8000307a:	7398                	ld	a4,32(a5)
    8000307c:	6794                	ld	a3,8(a5)
    8000307e:	04d70763          	beq	a4,a3,800030cc <OSQPostOpt+0xcc>
    80003082:	ff870693          	addi	a3,a4,-8
    80003086:	f394                	sd	a3,32(a5)
    80003088:	ff273c23          	sd	s2,-8(a4)
    8000308c:	a819                	j	800030a2 <OSQPostOpt+0xa2>
    8000308e:	6f98                	ld	a4,24(a5)
    80003090:	00870693          	addi	a3,a4,8
    80003094:	ef94                	sd	a3,24(a5)
    80003096:	01273023          	sd	s2,0(a4)
    8000309a:	6f94                	ld	a3,24(a5)
    8000309c:	6b98                	ld	a4,16(a5)
    8000309e:	02e68963          	beq	a3,a4,800030d0 <OSQPostOpt+0xd0>
    800030a2:	02a7d703          	lhu	a4,42(a5)
    800030a6:	854e                	mv	a0,s3
    800030a8:	4401                	li	s0,0
    800030aa:	2705                	addiw	a4,a4,1
    800030ac:	02e79523          	sh	a4,42(a5)
    800030b0:	65b010ef          	jal	ra,80004f0a <OS_CPU_SR_Restore>
    800030b4:	b795                	j	80003018 <OSQPostOpt+0x18>
    800030b6:	4681                	li	a3,0
    800030b8:	4611                	li	a2,4
    800030ba:	85ca                	mv	a1,s2
    800030bc:	8522                	mv	a0,s0
    800030be:	803fd0ef          	jal	ra,800008c0 <OS_EventTaskRdy>
    800030c2:	bf41                	j	80003052 <OSQPostOpt+0x52>
    800030c4:	647010ef          	jal	ra,80004f0a <OS_CPU_SR_Restore>
    800030c8:	4479                	li	s0,30
    800030ca:	b7b9                	j	80003018 <OSQPostOpt+0x18>
    800030cc:	6b98                	ld	a4,16(a5)
    800030ce:	bf55                	j	80003082 <OSQPostOpt+0x82>
    800030d0:	6798                	ld	a4,8(a5)
    800030d2:	ef98                	sd	a4,24(a5)
    800030d4:	b7f9                	j	800030a2 <OSQPostOpt+0xa2>

00000000800030d6 <OSQQuery>:
    800030d6:	00054703          	lbu	a4,0(a0)
    800030da:	4789                	li	a5,2
    800030dc:	00f70463          	beq	a4,a5,800030e4 <OSQQuery+0xe>
    800030e0:	4505                	li	a0,1
    800030e2:	8082                	ret
    800030e4:	1101                	addi	sp,sp,-32
    800030e6:	e822                	sd	s0,16(sp)
    800030e8:	e426                	sd	s1,8(sp)
    800030ea:	842a                	mv	s0,a0
    800030ec:	84ae                	mv	s1,a1
    800030ee:	ec06                	sd	ra,24(sp)
    800030f0:	611010ef          	jal	ra,80004f00 <OS_CPU_SR_Save>
    800030f4:	01244683          	lbu	a3,18(s0)
    800030f8:	01340793          	addi	a5,s0,19
    800030fc:	00c48713          	addi	a4,s1,12
    80003100:	00d48a23          	sb	a3,20(s1)
    80003104:	01b40613          	addi	a2,s0,27
    80003108:	0785                	addi	a5,a5,1
    8000310a:	fff7c683          	lbu	a3,-1(a5)
    8000310e:	0705                	addi	a4,a4,1
    80003110:	fed70fa3          	sb	a3,-1(a4)
    80003114:	fef61ae3          	bne	a2,a5,80003108 <OSQQuery+0x32>
    80003118:	641c                	ld	a5,8(s0)
    8000311a:	02a7d703          	lhu	a4,42(a5)
    8000311e:	e31d                	bnez	a4,80003144 <OSQQuery+0x6e>
    80003120:	0004b023          	sd	zero,0(s1)
    80003124:	02a7d703          	lhu	a4,42(a5)
    80003128:	00e49423          	sh	a4,8(s1)
    8000312c:	0287d783          	lhu	a5,40(a5)
    80003130:	00f49523          	sh	a5,10(s1)
    80003134:	5d7010ef          	jal	ra,80004f0a <OS_CPU_SR_Restore>
    80003138:	60e2                	ld	ra,24(sp)
    8000313a:	6442                	ld	s0,16(sp)
    8000313c:	64a2                	ld	s1,8(sp)
    8000313e:	4501                	li	a0,0
    80003140:	6105                	addi	sp,sp,32
    80003142:	8082                	ret
    80003144:	7398                	ld	a4,32(a5)
    80003146:	6318                	ld	a4,0(a4)
    80003148:	e098                	sd	a4,0(s1)
    8000314a:	bfe9                	j	80003124 <OSQQuery+0x4e>

000000008000314c <OS_QInit>:
    8000314c:	0007e697          	auipc	a3,0x7e
    80003150:	d4468693          	addi	a3,a3,-700 # 80080e90 <OSQTbl>
    80003154:	87b6                	mv	a5,a3
    80003156:	0007e717          	auipc	a4,0x7e
    8000315a:	dfa70713          	addi	a4,a4,-518 # 80080f50 <OSTCBHighRdy>
    8000315e:	0785                	addi	a5,a5,1
    80003160:	fe078fa3          	sb	zero,-1(a5)
    80003164:	fee79de3          	bne	a5,a4,8000315e <OS_QInit+0x12>
    80003168:	0007e797          	auipc	a5,0x7e
    8000316c:	d5878793          	addi	a5,a5,-680 # 80080ec0 <OSQTbl+0x30>
    80003170:	0007e717          	auipc	a4,0x7e
    80003174:	d2f73023          	sd	a5,-736(a4) # 80080e90 <OSQTbl>
    80003178:	0007e797          	auipc	a5,0x7e
    8000317c:	d7878793          	addi	a5,a5,-648 # 80080ef0 <OSQTbl+0x60>
    80003180:	0007e717          	auipc	a4,0x7e
    80003184:	d4f73023          	sd	a5,-704(a4) # 80080ec0 <OSQTbl+0x30>
    80003188:	0007e797          	auipc	a5,0x7e
    8000318c:	d9878793          	addi	a5,a5,-616 # 80080f20 <OSQTbl+0x90>
    80003190:	0007e717          	auipc	a4,0x7e
    80003194:	d6f73023          	sd	a5,-672(a4) # 80080ef0 <OSQTbl+0x60>
    80003198:	0007e797          	auipc	a5,0x7e
    8000319c:	d807b423          	sd	zero,-632(a5) # 80080f20 <OSQTbl+0x90>
    800031a0:	0007e797          	auipc	a5,0x7e
    800031a4:	dad7bc23          	sd	a3,-584(a5) # 80080f58 <OSQFreeList>
    800031a8:	8082                	ret

00000000800031aa <OSSemAccept>:
    800031aa:	1101                	addi	sp,sp,-32
    800031ac:	e426                	sd	s1,8(sp)
    800031ae:	ec06                	sd	ra,24(sp)
    800031b0:	e822                	sd	s0,16(sp)
    800031b2:	00054703          	lbu	a4,0(a0)
    800031b6:	478d                	li	a5,3
    800031b8:	4481                	li	s1,0
    800031ba:	00f70863          	beq	a4,a5,800031ca <OSSemAccept+0x20>
    800031be:	60e2                	ld	ra,24(sp)
    800031c0:	6442                	ld	s0,16(sp)
    800031c2:	8526                	mv	a0,s1
    800031c4:	64a2                	ld	s1,8(sp)
    800031c6:	6105                	addi	sp,sp,32
    800031c8:	8082                	ret
    800031ca:	842a                	mv	s0,a0
    800031cc:	535010ef          	jal	ra,80004f00 <OS_CPU_SR_Save>
    800031d0:	01045483          	lhu	s1,16(s0)
    800031d4:	c489                	beqz	s1,800031de <OSSemAccept+0x34>
    800031d6:	fff4879b          	addiw	a5,s1,-1
    800031da:	00f41823          	sh	a5,16(s0)
    800031de:	52d010ef          	jal	ra,80004f0a <OS_CPU_SR_Restore>
    800031e2:	60e2                	ld	ra,24(sp)
    800031e4:	6442                	ld	s0,16(sp)
    800031e6:	8526                	mv	a0,s1
    800031e8:	64a2                	ld	s1,8(sp)
    800031ea:	6105                	addi	sp,sp,32
    800031ec:	8082                	ret

00000000800031ee <OSSemCreate>:
    800031ee:	1101                	addi	sp,sp,-32
    800031f0:	ec06                	sd	ra,24(sp)
    800031f2:	e822                	sd	s0,16(sp)
    800031f4:	e426                	sd	s1,8(sp)
    800031f6:	0007e797          	auipc	a5,0x7e
    800031fa:	1827c783          	lbu	a5,386(a5) # 80081378 <OSIntNesting>
    800031fe:	e7ad                	bnez	a5,80003268 <OSSemCreate+0x7a>
    80003200:	84aa                	mv	s1,a0
    80003202:	4ff010ef          	jal	ra,80004f00 <OS_CPU_SR_Save>
    80003206:	0007e797          	auipc	a5,0x7e
    8000320a:	16a78793          	addi	a5,a5,362 # 80081370 <OSEventFreeList>
    8000320e:	6380                	ld	s0,0(a5)
    80003210:	c421                	beqz	s0,80003258 <OSSemCreate+0x6a>
    80003212:	641c                	ld	a5,8(s0)
    80003214:	0007e717          	auipc	a4,0x7e
    80003218:	14f73e23          	sd	a5,348(a4) # 80081370 <OSEventFreeList>
    8000321c:	4ef010ef          	jal	ra,80004f0a <OS_CPU_SR_Restore>
    80003220:	478d                	li	a5,3
    80003222:	00f40023          	sb	a5,0(s0)
    80003226:	0007d797          	auipc	a5,0x7d
    8000322a:	03a78793          	addi	a5,a5,58 # 80080260 <OSUnMapTbl+0x260>
    8000322e:	00941823          	sh	s1,16(s0)
    80003232:	00043423          	sd	zero,8(s0)
    80003236:	f01c                	sd	a5,32(s0)
    80003238:	00041923          	sh	zero,18(s0)
    8000323c:	00041a23          	sh	zero,20(s0)
    80003240:	00041b23          	sh	zero,22(s0)
    80003244:	00041c23          	sh	zero,24(s0)
    80003248:	00040d23          	sb	zero,26(s0)
    8000324c:	8522                	mv	a0,s0
    8000324e:	60e2                	ld	ra,24(sp)
    80003250:	6442                	ld	s0,16(sp)
    80003252:	64a2                	ld	s1,8(sp)
    80003254:	6105                	addi	sp,sp,32
    80003256:	8082                	ret
    80003258:	4b3010ef          	jal	ra,80004f0a <OS_CPU_SR_Restore>
    8000325c:	8522                	mv	a0,s0
    8000325e:	60e2                	ld	ra,24(sp)
    80003260:	6442                	ld	s0,16(sp)
    80003262:	64a2                	ld	s1,8(sp)
    80003264:	6105                	addi	sp,sp,32
    80003266:	8082                	ret
    80003268:	4401                	li	s0,0
    8000326a:	8522                	mv	a0,s0
    8000326c:	60e2                	ld	ra,24(sp)
    8000326e:	6442                	ld	s0,16(sp)
    80003270:	64a2                	ld	s1,8(sp)
    80003272:	6105                	addi	sp,sp,32
    80003274:	8082                	ret

0000000080003276 <OSSemDel>:
    80003276:	00054703          	lbu	a4,0(a0)
    8000327a:	478d                	li	a5,3
    8000327c:	00f70663          	beq	a4,a5,80003288 <OSSemDel+0x12>
    80003280:	4785                	li	a5,1
    80003282:	00f60023          	sb	a5,0(a2)
    80003286:	8082                	ret
    80003288:	0007e797          	auipc	a5,0x7e
    8000328c:	0f07c783          	lbu	a5,240(a5) # 80081378 <OSIntNesting>
    80003290:	c789                	beqz	a5,8000329a <OSSemDel+0x24>
    80003292:	47bd                	li	a5,15
    80003294:	00f60023          	sb	a5,0(a2)
    80003298:	8082                	ret
    8000329a:	7179                	addi	sp,sp,-48
    8000329c:	f022                	sd	s0,32(sp)
    8000329e:	ec26                	sd	s1,24(sp)
    800032a0:	e84a                	sd	s2,16(sp)
    800032a2:	e44e                	sd	s3,8(sp)
    800032a4:	842a                	mv	s0,a0
    800032a6:	f406                	sd	ra,40(sp)
    800032a8:	84b2                	mv	s1,a2
    800032aa:	892e                	mv	s2,a1
    800032ac:	455010ef          	jal	ra,80004f00 <OS_CPU_SR_Save>
    800032b0:	01244783          	lbu	a5,18(s0)
    800032b4:	89aa                	mv	s3,a0
    800032b6:	c38d                	beqz	a5,800032d8 <OSSemDel+0x62>
    800032b8:	06091a63          	bnez	s2,8000332c <OSSemDel+0xb6>
    800032bc:	44f010ef          	jal	ra,80004f0a <OS_CPU_SR_Restore>
    800032c0:	04900793          	li	a5,73
    800032c4:	00f48023          	sb	a5,0(s1)
    800032c8:	8522                	mv	a0,s0
    800032ca:	70a2                	ld	ra,40(sp)
    800032cc:	7402                	ld	s0,32(sp)
    800032ce:	64e2                	ld	s1,24(sp)
    800032d0:	6942                	ld	s2,16(sp)
    800032d2:	69a2                	ld	s3,8(sp)
    800032d4:	6145                	addi	sp,sp,48
    800032d6:	8082                	ret
    800032d8:	06090b63          	beqz	s2,8000334e <OSSemDel+0xd8>
    800032dc:	4785                	li	a5,1
    800032de:	02f91f63          	bne	s2,a5,8000331c <OSSemDel+0xa6>
    800032e2:	4901                	li	s2,0
    800032e4:	00040023          	sb	zero,0(s0)
    800032e8:	0007e797          	auipc	a5,0x7e
    800032ec:	08878793          	addi	a5,a5,136 # 80081370 <OSEventFreeList>
    800032f0:	639c                	ld	a5,0(a5)
    800032f2:	0007d717          	auipc	a4,0x7d
    800032f6:	f6e70713          	addi	a4,a4,-146 # 80080260 <OSUnMapTbl+0x260>
    800032fa:	f018                	sd	a4,32(s0)
    800032fc:	e41c                	sd	a5,8(s0)
    800032fe:	00041823          	sh	zero,16(s0)
    80003302:	854e                	mv	a0,s3
    80003304:	0007e797          	auipc	a5,0x7e
    80003308:	0687b623          	sd	s0,108(a5) # 80081370 <OSEventFreeList>
    8000330c:	3ff010ef          	jal	ra,80004f0a <OS_CPU_SR_Restore>
    80003310:	02091c63          	bnez	s2,80003348 <OSSemDel+0xd2>
    80003314:	00048023          	sb	zero,0(s1)
    80003318:	4501                	li	a0,0
    8000331a:	bf45                	j	800032ca <OSSemDel+0x54>
    8000331c:	854e                	mv	a0,s3
    8000331e:	3ed010ef          	jal	ra,80004f0a <OS_CPU_SR_Restore>
    80003322:	479d                	li	a5,7
    80003324:	00f48023          	sb	a5,0(s1)
    80003328:	8522                	mv	a0,s0
    8000332a:	b745                	j	800032ca <OSSemDel+0x54>
    8000332c:	4785                	li	a5,1
    8000332e:	fef917e3          	bne	s2,a5,8000331c <OSSemDel+0xa6>
    80003332:	4905                	li	s2,1
    80003334:	4681                	li	a3,0
    80003336:	4605                	li	a2,1
    80003338:	4581                	li	a1,0
    8000333a:	8522                	mv	a0,s0
    8000333c:	d84fd0ef          	jal	ra,800008c0 <OS_EventTaskRdy>
    80003340:	01244783          	lbu	a5,18(s0)
    80003344:	fbe5                	bnez	a5,80003334 <OSSemDel+0xbe>
    80003346:	bf79                	j	800032e4 <OSSemDel+0x6e>
    80003348:	823fd0ef          	jal	ra,80000b6a <OS_Sched>
    8000334c:	b7e1                	j	80003314 <OSSemDel+0x9e>
    8000334e:	00040023          	sb	zero,0(s0)
    80003352:	0007e797          	auipc	a5,0x7e
    80003356:	01e78793          	addi	a5,a5,30 # 80081370 <OSEventFreeList>
    8000335a:	639c                	ld	a5,0(a5)
    8000335c:	0007d717          	auipc	a4,0x7d
    80003360:	f0470713          	addi	a4,a4,-252 # 80080260 <OSUnMapTbl+0x260>
    80003364:	f018                	sd	a4,32(s0)
    80003366:	e41c                	sd	a5,8(s0)
    80003368:	00041823          	sh	zero,16(s0)
    8000336c:	0007e797          	auipc	a5,0x7e
    80003370:	0087b223          	sd	s0,4(a5) # 80081370 <OSEventFreeList>
    80003374:	397010ef          	jal	ra,80004f0a <OS_CPU_SR_Restore>
    80003378:	4501                	li	a0,0
    8000337a:	00048023          	sb	zero,0(s1)
    8000337e:	b7b1                	j	800032ca <OSSemDel+0x54>

0000000080003380 <OSSemPend>:
    80003380:	00054703          	lbu	a4,0(a0)
    80003384:	478d                	li	a5,3
    80003386:	00f70663          	beq	a4,a5,80003392 <OSSemPend+0x12>
    8000338a:	4785                	li	a5,1
    8000338c:	00f60023          	sb	a5,0(a2)
    80003390:	8082                	ret
    80003392:	0007e797          	auipc	a5,0x7e
    80003396:	fe67c783          	lbu	a5,-26(a5) # 80081378 <OSIntNesting>
    8000339a:	e3c5                	bnez	a5,8000343a <OSSemPend+0xba>
    8000339c:	0007d797          	auipc	a5,0x7d
    800033a0:	0ac7c783          	lbu	a5,172(a5) # 80080448 <OSLockNesting>
    800033a4:	c789                	beqz	a5,800033ae <OSSemPend+0x2e>
    800033a6:	47b5                	li	a5,13
    800033a8:	00f60023          	sb	a5,0(a2)
    800033ac:	8082                	ret
    800033ae:	7179                	addi	sp,sp,-48
    800033b0:	f022                	sd	s0,32(sp)
    800033b2:	ec26                	sd	s1,24(sp)
    800033b4:	e84a                	sd	s2,16(sp)
    800033b6:	e052                	sd	s4,0(sp)
    800033b8:	842a                	mv	s0,a0
    800033ba:	f406                	sd	ra,40(sp)
    800033bc:	e44e                	sd	s3,8(sp)
    800033be:	84b2                	mv	s1,a2
    800033c0:	892e                	mv	s2,a1
    800033c2:	33f010ef          	jal	ra,80004f00 <OS_CPU_SR_Save>
    800033c6:	01045783          	lhu	a5,16(s0)
    800033ca:	8a2a                	mv	s4,a0
    800033cc:	ebbd                	bnez	a5,80003442 <OSSemPend+0xc2>
    800033ce:	0007e997          	auipc	s3,0x7e
    800033d2:	fb298993          	addi	s3,s3,-78 # 80081380 <OSTCBCur>
    800033d6:	0009b783          	ld	a5,0(s3)
    800033da:	8522                	mv	a0,s0
    800033dc:	0587c703          	lbu	a4,88(a5)
    800033e0:	04078ca3          	sb	zero,89(a5)
    800033e4:	0527aa23          	sw	s2,84(a5)
    800033e8:	00176713          	ori	a4,a4,1
    800033ec:	04e78c23          	sb	a4,88(a5)
    800033f0:	dd2fd0ef          	jal	ra,800009c2 <OS_EventTaskWait>
    800033f4:	8552                	mv	a0,s4
    800033f6:	315010ef          	jal	ra,80004f0a <OS_CPU_SR_Restore>
    800033fa:	f70fd0ef          	jal	ra,80000b6a <OS_Sched>
    800033fe:	303010ef          	jal	ra,80004f00 <OS_CPU_SR_Save>
    80003402:	0009b783          	ld	a5,0(s3)
    80003406:	0597c703          	lbu	a4,89(a5)
    8000340a:	cf25                	beqz	a4,80003482 <OSSemPend+0x102>
    8000340c:	4689                	li	a3,2
    8000340e:	04d71963          	bne	a4,a3,80003460 <OSSemPend+0xe0>
    80003412:	47b9                	li	a5,14
    80003414:	00f48023          	sb	a5,0(s1)
    80003418:	0009b783          	ld	a5,0(s3)
    8000341c:	04079c23          	sh	zero,88(a5)
    80003420:	0207b823          	sd	zero,48(a5)
    80003424:	0207bc23          	sd	zero,56(a5)
    80003428:	7402                	ld	s0,32(sp)
    8000342a:	70a2                	ld	ra,40(sp)
    8000342c:	64e2                	ld	s1,24(sp)
    8000342e:	6942                	ld	s2,16(sp)
    80003430:	69a2                	ld	s3,8(sp)
    80003432:	6a02                	ld	s4,0(sp)
    80003434:	6145                	addi	sp,sp,48
    80003436:	2d50106f          	j	80004f0a <OS_CPU_SR_Restore>
    8000343a:	4789                	li	a5,2
    8000343c:	00f60023          	sb	a5,0(a2)
    80003440:	8082                	ret
    80003442:	37fd                	addiw	a5,a5,-1
    80003444:	00f41823          	sh	a5,16(s0)
    80003448:	2c3010ef          	jal	ra,80004f0a <OS_CPU_SR_Restore>
    8000344c:	00048023          	sb	zero,0(s1)
    80003450:	70a2                	ld	ra,40(sp)
    80003452:	7402                	ld	s0,32(sp)
    80003454:	64e2                	ld	s1,24(sp)
    80003456:	6942                	ld	s2,16(sp)
    80003458:	69a2                	ld	s3,8(sp)
    8000345a:	6a02                	ld	s4,0(sp)
    8000345c:	6145                	addi	sp,sp,48
    8000345e:	8082                	ret
    80003460:	05c7c683          	lbu	a3,92(a5)
    80003464:	05d7c703          	lbu	a4,93(a5)
    80003468:	96a2                	add	a3,a3,s0
    8000346a:	0136c603          	lbu	a2,19(a3)
    8000346e:	fff74713          	not	a4,a4
    80003472:	8f71                	and	a4,a4,a2
    80003474:	00e689a3          	sb	a4,19(a3)
    80003478:	cb01                	beqz	a4,80003488 <OSSemPend+0x108>
    8000347a:	47a9                	li	a5,10
    8000347c:	00f48023          	sb	a5,0(s1)
    80003480:	bf61                	j	80003418 <OSSemPend+0x98>
    80003482:	00048023          	sb	zero,0(s1)
    80003486:	bf49                	j	80003418 <OSSemPend+0x98>
    80003488:	05e7c783          	lbu	a5,94(a5)
    8000348c:	01244703          	lbu	a4,18(s0)
    80003490:	fff7c793          	not	a5,a5
    80003494:	8ff9                	and	a5,a5,a4
    80003496:	00f40923          	sb	a5,18(s0)
    8000349a:	b7c5                	j	8000347a <OSSemPend+0xfa>

000000008000349c <OSTmr_Task>:
    8000349c:	7159                	addi	sp,sp,-112
    8000349e:	e8ca                	sd	s2,80(sp)
    800034a0:	e4ce                	sd	s3,72(sp)
    800034a2:	e0d2                	sd	s4,64(sp)
    800034a4:	fc56                	sd	s5,56(sp)
    800034a6:	f85a                	sd	s6,48(sp)
    800034a8:	f45e                	sd	s7,40(sp)
    800034aa:	f062                	sd	s8,32(sp)
    800034ac:	ec66                	sd	s9,24(sp)
    800034ae:	f486                	sd	ra,104(sp)
    800034b0:	f0a2                	sd	s0,96(sp)
    800034b2:	eca6                	sd	s1,88(sp)
    800034b4:	0007db97          	auipc	s7,0x7d
    800034b8:	f9cb8b93          	addi	s7,s7,-100 # 80080450 <OSTmrSemSignal>
    800034bc:	0007da17          	auipc	s4,0x7d
    800034c0:	f9ca0a13          	addi	s4,s4,-100 # 80080458 <OSRunning>
    800034c4:	0007e917          	auipc	s2,0x7e
    800034c8:	ec490913          	addi	s2,s2,-316 # 80081388 <OSTmrTime>
    800034cc:	0007db17          	auipc	s6,0x7d
    800034d0:	efcb0b13          	addi	s6,s6,-260 # 800803c8 <OSTmrWheelTbl>
    800034d4:	4985                	li	s3,1
    800034d6:	4a89                	li	s5,2
    800034d8:	4c0d                	li	s8,3
    800034da:	4c85                	li	s9,1
    800034dc:	000bb503          	ld	a0,0(s7)
    800034e0:	00f10613          	addi	a2,sp,15
    800034e4:	4581                	li	a1,0
    800034e6:	e9bff0ef          	jal	ra,80003380 <OSSemPend>
    800034ea:	000a4783          	lbu	a5,0(s4)
    800034ee:	07378c63          	beq	a5,s3,80003566 <OSTmr_Task+0xca>
    800034f2:	00092683          	lw	a3,0(s2)
    800034f6:	0016879b          	addiw	a5,a3,1
    800034fa:	0077f713          	andi	a4,a5,7
    800034fe:	0712                	slli	a4,a4,0x4
    80003500:	975a                	add	a4,a4,s6
    80003502:	6300                	ld	s0,0(a4)
    80003504:	0007e717          	auipc	a4,0x7e
    80003508:	e8f72223          	sw	a5,-380(a4) # 80081388 <OSTmrTime>
    8000350c:	cc05                	beqz	s0,80003544 <OSTmr_Task+0xa8>
    8000350e:	5418                	lw	a4,40(s0)
    80003510:	6c04                	ld	s1,24(s0)
    80003512:	00f70a63          	beq	a4,a5,80003526 <OSTmr_Task+0x8a>
    80003516:	c49d                	beqz	s1,80003544 <OSTmr_Task+0xa8>
    80003518:	8426                	mv	s0,s1
    8000351a:	00092783          	lw	a5,0(s2)
    8000351e:	5418                	lw	a4,40(s0)
    80003520:	6c04                	ld	s1,24(s0)
    80003522:	fef71ae3          	bne	a4,a5,80003516 <OSTmr_Task+0x7a>
    80003526:	8522                	mv	a0,s0
    80003528:	eabfc0ef          	jal	ra,800003d2 <OSTmr_Unlink>
    8000352c:	04044783          	lbu	a5,64(s0)
    80003530:	03578e63          	beq	a5,s5,8000356c <OSTmr_Task+0xd0>
    80003534:	055400a3          	sb	s5,65(s0)
    80003538:	641c                	ld	a5,8(s0)
    8000353a:	dff1                	beqz	a5,80003516 <OSTmr_Task+0x7a>
    8000353c:	680c                	ld	a1,16(s0)
    8000353e:	8522                	mv	a0,s0
    80003540:	9782                	jalr	a5
    80003542:	f8f9                	bnez	s1,80003518 <OSTmr_Task+0x7c>
    80003544:	000a4783          	lbu	a5,0(s4)
    80003548:	f9379ae3          	bne	a5,s3,800034dc <OSTmr_Task+0x40>
    8000354c:	9affd0ef          	jal	ra,80000efa <OSSchedUnlock.part.3>
    80003550:	000bb503          	ld	a0,0(s7)
    80003554:	00f10613          	addi	a2,sp,15
    80003558:	4581                	li	a1,0
    8000355a:	e27ff0ef          	jal	ra,80003380 <OSSemPend>
    8000355e:	000a4783          	lbu	a5,0(s4)
    80003562:	f93798e3          	bne	a5,s3,800034f2 <OSTmr_Task+0x56>
    80003566:	ee1fc0ef          	jal	ra,80000446 <OSSchedLock.part.1>
    8000356a:	b761                	j	800034f2 <OSTmr_Task+0x56>
    8000356c:	5818                	lw	a4,48(s0)
    8000356e:	00092783          	lw	a5,0(s2)
    80003572:	058400a3          	sb	s8,65(s0)
    80003576:	9f3d                	addw	a4,a4,a5
    80003578:	00777793          	andi	a5,a4,7
    8000357c:	0792                	slli	a5,a5,0x4
    8000357e:	d418                	sw	a4,40(s0)
    80003580:	97da                	add	a5,a5,s6
    80003582:	6398                	ld	a4,0(a5)
    80003584:	e380                	sd	s0,0(a5)
    80003586:	cb19                	beqz	a4,8000359c <OSTmr_Task+0x100>
    80003588:	ec18                	sd	a4,24(s0)
    8000358a:	f300                	sd	s0,32(a4)
    8000358c:	0087d703          	lhu	a4,8(a5)
    80003590:	2705                	addiw	a4,a4,1
    80003592:	00e79423          	sh	a4,8(a5)
    80003596:	02043023          	sd	zero,32(s0)
    8000359a:	bf79                	j	80003538 <OSTmr_Task+0x9c>
    8000359c:	00043c23          	sd	zero,24(s0)
    800035a0:	01979423          	sh	s9,8(a5)
    800035a4:	02043023          	sd	zero,32(s0)
    800035a8:	bf41                	j	80003538 <OSTmr_Task+0x9c>

00000000800035aa <OSSemPendAbort>:
    800035aa:	7179                	addi	sp,sp,-48
    800035ac:	f406                	sd	ra,40(sp)
    800035ae:	f022                	sd	s0,32(sp)
    800035b0:	ec26                	sd	s1,24(sp)
    800035b2:	e84a                	sd	s2,16(sp)
    800035b4:	e44e                	sd	s3,8(sp)
    800035b6:	e052                	sd	s4,0(sp)
    800035b8:	00054703          	lbu	a4,0(a0)
    800035bc:	478d                	li	a5,3
    800035be:	00f70f63          	beq	a4,a5,800035dc <OSSemPendAbort+0x32>
    800035c2:	4785                	li	a5,1
    800035c4:	00f60023          	sb	a5,0(a2)
    800035c8:	4401                	li	s0,0
    800035ca:	8522                	mv	a0,s0
    800035cc:	70a2                	ld	ra,40(sp)
    800035ce:	7402                	ld	s0,32(sp)
    800035d0:	64e2                	ld	s1,24(sp)
    800035d2:	6942                	ld	s2,16(sp)
    800035d4:	69a2                	ld	s3,8(sp)
    800035d6:	6a02                	ld	s4,0(sp)
